 serialport

 Timestamp is 56b3bcd4 (Thu Feb 04 22:04:20 2016)

 Preferred load address is 0000000180000000

 Start         Length     Name                   Class
 0001:00000000 00000080H .text$di                CODE
 0001:00000080 0001c8e7H .text$mn                CODE
 0001:0001c970 00001238H .text$x                 CODE
 0001:0001dbb0 000000ccH .text$yd                CODE
 0002:00000000 00000520H .idata$5                DATA
 0002:00000520 00000008H .CRT$XCA                DATA
 0002:00000528 00000010H .CRT$XCU                DATA
 0002:00000538 00000008H .CRT$XCZ                DATA
 0002:00000540 00000008H .CRT$XIA                DATA
 0002:00000548 00000020H .CRT$XIC                DATA
 0002:00000568 00000008H .CRT$XIZ                DATA
 0002:00000570 00000008H .CRT$XPA                DATA
 0002:00000578 00000010H .CRT$XPX                DATA
 0002:00000588 00000008H .CRT$XPXA               DATA
 0002:00000590 00000008H .CRT$XPZ                DATA
 0002:00000598 00000008H .CRT$XTA                DATA
 0002:000005a0 00000008H .CRT$XTZ                DATA
 0002:000005b0 000085c0H .rdata                  DATA
 0002:00008b70 0000008cH .rdata$debug            DATA
 0002:00008c00 0000037cH .rdata$r                DATA
 0002:00008f80 00000008H .rtc$IAA                DATA
 0002:00008f88 00000008H .rtc$IZZ                DATA
 0002:00008f90 00000008H .rtc$TAA                DATA
 0002:00008f98 00000008H .rtc$TZZ                DATA
 0002:00008fa0 00002518H .xdata                  DATA
 0002:0000b4b8 000001dcH .xdata$x                DATA
 0002:0000b6a0 00000058H .edata                  DATA
 0002:0000b6f8 00000064H .idata$2                DATA
 0002:0000b75c 00000014H .idata$3                DATA
 0002:0000b770 00000520H .idata$4                DATA
 0002:0000bc90 0000153cH .idata$6                DATA
 0003:00000000 000019c8H .data                   DATA
 0003:000019c8 00000110H .data$r                 DATA
 0003:00001ae0 000025ccH .bss                    DATA
 0004:00000000 00001578H .pdata                  DATA
 0005:00000000 00000058H .rsrc$01                DATA
 0005:00000060 00000180H .rsrc$02                DATA

  Address         Publics by Value              Rva+Base               Lib:Object

 0000:00000000       ___safe_se_handler_count   0000000000000000     <absolute>
 0000:00000000       ___safe_se_handler_table   0000000000000000     <absolute>
 0000:00000000       __guard_fids_count         0000000000000000     <absolute>
 0000:00000000       __guard_fids_table         0000000000000000     <absolute>
 0000:00000000       __guard_flags              0000000000000000     <absolute>
 0000:00000000       __ImageBase                0000000180000000     <linker-defined>
 0001:00000080       ??$destroy@PEAU?$_List_node@HPEAX@std@@@?$_Wrap_alloc@V?$allocator@U?$_List_node@HPEAX@std@@@std@@@std@@QEAAXPEAPEAU?$_List_node@HPEAX@1@@Z 0000000180001080 f i serialport_win.obj
 0001:00000080       ?EIO_Update@@YAXPEAUuv_work_s@@@Z 0000000180001080 f i serialport_win.obj
 0001:00000080       ??1?$Persistent@VObject@v8@@V?$NonCopyablePersistentTraits@VObject@v8@@@2@@v8@@QEAA@XZ 0000000180001080 f i serialport.obj
 0001:00000080       ??3@YAXPEAX0@Z             0000000180001080 f i serialport.obj
 0001:00000080       ??$destroy@H@?$_Wrap_alloc@V?$allocator@U?$_List_node@HPEAX@std@@@std@@@std@@QEAAXPEAH@Z 0000000180001080 f i serialport_win.obj
 0001:00000140       ?New@?$Factory@VFunctionTemplate@v8@@@imp@Nan@@SA?AV?$Local@VFunctionTemplate@v8@@@v8@@P6AXAEBV?$FunctionCallbackInfo@VValue@v8@@@3@@ZV?$Local@VValue@v8@@@5@V?$Local@VSignature@v8@@@5@@Z 0000000180001140 f i serialport.obj
 0001:000002d0       ??1EscapableHandleScope@Nan@@QEAA@XZ 00000001800012d0 f i serialport.obj
 0001:00000300       ??1HandleScope@Nan@@QEAA@XZ 0000000180001300 f i serialport.obj
 0001:00000320       ??0Callback@Nan@@QEAA@AEBV?$Local@VFunction@v8@@@v8@@@Z 0000000180001320 f i serialport.obj
 0001:00000440       ?Call_@Callback@Nan@@AEBA?AV?$Local@VValue@v8@@@v8@@PEAVIsolate@4@V?$Local@VObject@v8@@@4@HQEAV34@@Z 0000000180001440 f i serialport.obj
 0001:00000510       ??1?$Persistent@VObject@v8@@V?$NonCopyablePersistentTraits@VObject@v8@@@2@@Nan@@QEAA@XZ 0000000180001510 f i serialport.obj
 0001:00000530       ??1QueuedWrite@@QEAA@XZ    0000000180001530 f i serialport.obj
 0001:00000570       ??0_WriteQueue@@QEAA@H@Z   0000000180001570 f i serialport.obj
 0001:00000690       ??_G_WriteQueue@@QEAAPEAXI@Z 0000000180001690 f i serialport.obj
 0001:000006f0       ?Open@@YAXAEBV?$FunctionCallbackInfo@VValue@v8@@@Nan@@@Z 00000001800016f0 f   serialport.obj
 0001:00001470       ?EIO_AfterUpdate@@YAXPEAUuv_work_s@@@Z 0000000180002470 f   serialport.obj
 0001:00001470       ?EIO_AfterOpen@@YAXPEAUuv_work_s@@@Z 0000000180002470 f   serialport.obj
 0001:00001700       ?Update@@YAXAEBV?$FunctionCallbackInfo@VValue@v8@@@Nan@@@Z 0000000180002700 f   serialport.obj
 0001:000023b0       ?Write@@YAXAEBV?$FunctionCallbackInfo@VValue@v8@@@Nan@@@Z 00000001800033b0 f   serialport.obj
 0001:00002880       ?EIO_AfterWrite@@YAXPEAUuv_work_s@@@Z 0000000180003880 f   serialport.obj
 0001:00002bf0       ?Close@@YAXAEBV?$FunctionCallbackInfo@VValue@v8@@@Nan@@@Z 0000000180003bf0 f   serialport.obj
 0001:00002e70       ?EIO_AfterClose@@YAXPEAUuv_work_s@@@Z 0000000180003e70 f   serialport.obj
 0001:00003100       ?List@@YAXAEBV?$FunctionCallbackInfo@VValue@v8@@@Nan@@@Z 0000000180004100 f   serialport.obj
 0001:000032f0       ?EIO_AfterList@@YAXPEAUuv_work_s@@@Z 00000001800042f0 f   serialport.obj
 0001:00003a60       ??1ListResultItem@@QEAA@XZ 0000000180004a60 f i serialport.obj
 0001:00003ba0       ?Flush@@YAXAEBV?$FunctionCallbackInfo@VValue@v8@@@Nan@@@Z 0000000180004ba0 f   serialport.obj
 0001:00003e20       ?EIO_AfterSet@@YAXPEAUuv_work_s@@@Z 0000000180004e20 f   serialport.obj
 0001:00003e20       ?EIO_AfterDrain@@YAXPEAUuv_work_s@@@Z 0000000180004e20 f   serialport.obj
 0001:00003e20       ?EIO_AfterFlush@@YAXPEAUuv_work_s@@@Z 0000000180004e20 f   serialport.obj
 0001:00004000       ?Set@@YAXAEBV?$FunctionCallbackInfo@VValue@v8@@@Nan@@@Z 0000000180005000 f   serialport.obj
 0001:00004600       ?Drain@@YAXAEBV?$FunctionCallbackInfo@VValue@v8@@@Nan@@@Z 0000000180005600 f   serialport.obj
 0001:00004880       init                       0000000180005880 f   serialport.obj
 0001:00004ee0       _register_serialport       0000000180005ee0 f   serialport.obj
 0001:00004ef0       ??1?$basic_string@DU?$char_traits@D@std@@V?$allocator@D@2@@std@@QEAA@XZ 0000000180005ef0 f i serialport.obj
 0001:00004f30       ??1?$list@PEAUListResultItem@@V?$allocator@PEAUListResultItem@@@std@@@std@@QEAA@XZ 0000000180005f30 f i serialport.obj
 0001:00004f90       ??1?$_List_buy@PEAUListResultItem@@V?$allocator@PEAUListResultItem@@@std@@@std@@QEAA@XZ 0000000180005f90 f i serialport.obj
 0001:00004fb0       ?assign@?$basic_string@DU?$char_traits@D@std@@V?$allocator@D@2@@std@@QEAAAEAV12@AEBV12@_K1@Z 0000000180005fb0 f i serialport.obj
 0001:000050e0       ??1?$_List_alloc@$0A@U?$_List_base_types@PEAUListResultItem@@V?$allocator@PEAUListResultItem@@@std@@@std@@@std@@QEAA@XZ 00000001800060e0 f i serialport.obj
 0001:000050f0       ?assign@?$basic_string@DU?$char_traits@D@std@@V?$allocator@D@2@@std@@QEAAAEAV12@PEBD_K@Z 00000001800060f0 f i serialport.obj
 0001:00005230       ?erase@?$basic_string@DU?$char_traits@D@std@@V?$allocator@D@2@@std@@QEAAAEAV12@_K0@Z 0000000180006230 f i serialport.obj
 0001:00005300       ?_Copy@?$basic_string@DU?$char_traits@D@std@@V?$allocator@D@2@@std@@QEAAX_K0@Z 0000000180006300 f i serialport.obj
 0001:00005400       ?Error@Nan@@YA?AV?$Local@VValue@v8@@@v8@@PEBD@Z 0000000180006400 f i serialport_win.obj
 0001:000054b0       ?ErrorCodeToString@@YAXPEBDHPEAD@Z 00000001800064b0 f   serialport_win.obj
 0001:00005540       ?EIO_Open@@YAXPEAUuv_work_s@@@Z 0000000180006540 f   serialport_win.obj
 0001:00005870       ?EIO_Set@@YAXPEAUuv_work_s@@@Z 0000000180006870 f   serialport_win.obj
 0001:00005920       ?EIO_WatchPort@@YAXPEAUuv_work_s@@@Z 0000000180006920 f   serialport_win.obj
 0001:00005a40       ?IsClosingHandle@@YA_NH@Z  0000000180006a40 f   serialport_win.obj
 0001:00005b10       ?DisposeWatchPortCallbacks@@YAXPEAUWatchPortBaton@@@Z 0000000180006b10 f   serialport_win.obj
 0001:00005bf0       ?EIO_AfterWatchPort@@YAXPEAUuv_work_s@@@Z 0000000180006bf0 f   serialport_win.obj
 0001:00005e90       ?AfterOpenSuccess@@YAXHPEAVCallback@Nan@@00@Z 0000000180006e90 f   serialport_win.obj
 0001:00005f70       ?EIO_Write@@YAXPEAUuv_work_s@@@Z 0000000180006f70 f   serialport_win.obj
 0001:00006100       ?EIO_Close@@YAXPEAUuv_work_s@@@Z 0000000180007100 f   serialport_win.obj
 0001:00006240       ?EIO_List@@YAXPEAUuv_work_s@@@Z 0000000180007240 f   serialport_win.obj
 0001:00006870       ?EIO_Flush@@YAXPEAUuv_work_s@@@Z 0000000180007870 f   serialport_win.obj
 0001:00006920       ?EIO_Drain@@YAXPEAUuv_work_s@@@Z 0000000180007920 f   serialport_win.obj
 0001:000069d0       ??1?$CDhComPtr@UIEnumVARIANT@@@@QEAA@XZ 00000001800079d0 f i serialport_win.obj
 0001:000069d0       ??1?$CDhComPtr@UIDispatch@@@@QEAA@XZ 00000001800079d0 f i serialport_win.obj
 0001:00006a00       ??1?$vector@IV?$allocator@I@std@@@std@@QEAA@XZ 0000000180007a00 f i serialport_win.obj
 0001:00006a30       ??1?$_List_buy@HV?$allocator@H@std@@@std@@QEAA@XZ 0000000180007a30 f i serialport_win.obj
 0001:00006a60       ??1?$_List_alloc@$0A@U?$_List_base_types@HV?$allocator@H@std@@@std@@@std@@QEAA@XZ 0000000180007a60 f i serialport_win.obj
 0001:00006a70       ??0?$_Wrap_alloc@V?$allocator@U?$_List_node@HPEAX@std@@@std@@@std@@QEAA@XZ 0000000180007a70 f i serialport_win.obj
 0001:00006a80       ??$_Buynode@AEBH@?$_List_buy@HV?$allocator@H@std@@@std@@QEAAPEAU?$_List_node@HPEAX@1@PEAU21@0AEBH@Z 0000000180007a80 f i serialport_win.obj
 0001:00006b20       dhGetObjectEx              0000000180007b20 f   disphelper.obj
 0001:00006c00       dhGetObject                0000000180007c00 f   disphelper.obj
 0001:00006cc0       dhGetValue                 0000000180007cc0 f   disphelper.obj
 0001:00006db0       dhInvokeArray              0000000180007db0 f   disphelper.obj
 0001:00006fc0       dhGetValueV                0000000180007fc0 f   disphelper.obj
 0001:00007350       dhInvokeV                  0000000180008350 f   disphelper.obj
 0001:00007e10       dhEnumBeginV               0000000180008e10 f   disphelper.obj
 0001:00008050       dhEnumNextObject           0000000180009050 f   disphelper.obj
 0001:00008300       dhEnumBegin                0000000180009300 f   disphelper.obj
 0001:000083f0       ConvertFileTimeToVariantTime 00000001800093f0 f   disphelper.obj
 0001:00008490       ConvertVariantTimeToFileTime 0000000180009490 f   disphelper.obj
 0001:00008550       ConvertVariantTimeToSystemTime 0000000180009550 f   disphelper.obj
 0001:00008650       ConvertVariantTimeToTimeT  0000000180009650 f   disphelper.obj
 0001:000086d0       ConvertTimeTToVariantTime  00000001800096d0 f   disphelper.obj
 0001:000087f0       ConvertAnsiStrToBStr       00000001800097f0 f   disphelper.obj
 0001:000088e0       ConvertBStrToAnsiStr       00000001800098e0 f   disphelper.obj
 0001:000089d0       dhExitEx                   00000001800099d0 f   disphelper.obj
 0001:00008c80       dhFormatExceptionW         0000000180009c80 f   disphelper.obj
 0001:00008f90       dhCleanupThreadException   0000000180009f90 f   disphelper.obj
 0001:00009060       ??1CAutoHeapAlloc@@QEAA@XZ 000000018000a060 f i enumser.obj
 0001:00009090       ?UsingQueryDosDevice@CEnumerateSerial@@SAHAEAV?$vector@IV?$allocator@I@std@@@std@@@Z 000000018000a090 f   enumser.obj
 0001:00009360       ?_Reserve@?$vector@IV?$allocator@I@std@@@std@@IEAAX_K@Z 000000018000a360 f i enumser.obj
 0001:000093f0       ?_Reallocate@?$vector@IV?$allocator@I@std@@@std@@IEAAX_K@Z 000000018000a3f0 f i enumser.obj
 0001:00009494       ??0bad_alloc@std@@QEAA@AEBV01@@Z 000000018000a494 f i libcpmt:xthrow.obj
 0001:000094b8       ??0length_error@std@@QEAA@AEBV01@@Z 000000018000a4b8 f i libcpmt:xthrow.obj
 0001:000094dc       ??0logic_error@std@@QEAA@AEBV01@@Z 000000018000a4dc f i libcpmt:xthrow.obj
 0001:00009500       ??0out_of_range@std@@QEAA@AEBV01@@Z 000000018000a500 f i libcpmt:xthrow.obj
 0001:00009524       ??1bad_alloc@std@@UEAA@XZ  000000018000a524 f i libcpmt:xthrow.obj
 0001:00009534       ??1length_error@std@@UEAA@XZ 000000018000a534 f i libcpmt:xthrow.obj
 0001:00009534       ??1out_of_range@std@@UEAA@XZ 000000018000a534 f i libcpmt:xthrow.obj
 0001:0000953c       ??_Gbad_alloc@std@@UEAAPEAXI@Z 000000018000a53c f i libcpmt:xthrow.obj
 0001:0000953c       ??_Ebad_alloc@std@@UEAAPEAXI@Z 000000018000a53c f i libcpmt:xthrow.obj
 0001:00009578       ??_Gout_of_range@std@@UEAAPEAXI@Z 000000018000a578 f i libcpmt:xthrow.obj
 0001:00009578       ??_Elogic_error@std@@UEAAPEAXI@Z 000000018000a578 f i libcpmt:xthrow.obj
 0001:00009578       ??_Glength_error@std@@UEAAPEAXI@Z 000000018000a578 f i libcpmt:xthrow.obj
 0001:00009578       ??_Elength_error@std@@UEAAPEAXI@Z 000000018000a578 f i libcpmt:xthrow.obj
 0001:00009578       ??_Glogic_error@std@@UEAAPEAXI@Z 000000018000a578 f i libcpmt:xthrow.obj
 0001:00009578       ??_Eout_of_range@std@@UEAAPEAXI@Z 000000018000a578 f i libcpmt:xthrow.obj
 0001:000095a8       ?_Xbad_alloc@std@@YAXXZ    000000018000a5a8 f   libcpmt:xthrow.obj
 0001:000095ec       ?_Xlength_error@std@@YAXPEBD@Z 000000018000a5ec f   libcpmt:xthrow.obj
 0001:00009624       ?_Xout_of_range@std@@YAXPEBD@Z 000000018000a624 f   libcpmt:xthrow.obj
 0001:00009670       __security_check_cookie    000000018000a670 f   LIBCMT:amdsecgs.obj
 0001:000096a0       memmove                    000000018000a6a0 f   LIBCMT:memcpy.obj
 0001:000096a0       memcpy                     000000018000a6a0 f   LIBCMT:memcpy.obj
 0001:00009c08       malloc                     000000018000ac08 f   LIBCMT:malloc.obj
 0001:00009cc0       _wassert                   000000018000acc0 f   LIBCMT:wassert.obj
 0001:0000a624       __onexitinit               000000018000b624 f   LIBCMT:onexit.obj
 0001:0000a668       _onexit                    000000018000b668 f   LIBCMT:onexit.obj
 0001:0000a774       atexit                     000000018000b774 f   LIBCMT:onexit.obj
 0001:0000a78c       ??3@YAXPEAX@Z              000000018000b78c f   LIBCMT:delete.obj
 0001:0000a794       ??2@YAPEAX_K@Z             000000018000b794 f   LIBCMT:new.obj
 0001:0000a800       strstr                     000000018000b800 f   LIBCMT:strstr.obj
 0001:0000a9e0       _snprintf                  000000018000b9e0 f   LIBCMT:snprintf.obj
 0001:0000aab0       strncpy                    000000018000bab0 f   LIBCMT:strncpy.obj
 0001:0000ac14       strtok                     000000018000bc14 f   LIBCMT:strtok.obj
 0001:0000ad0c       wcschr                     000000018000bd0c f   LIBCMT:wcschr.obj
 0001:0000b04c       _mktime64                  000000018000c04c f   LIBCMT:mktime64.obj
 0001:0000b058       _gmtime64                  000000018000c058 f   LIBCMT:gmtime64.obj
 0001:0000b0a0       _gmtime64_s                000000018000c0a0 f   LIBCMT:gmtime64.obj
 0001:0000b370       _snwprintf                 000000018000c370 f   LIBCMT:snwprint.obj
 0001:0000b454       _localtime64               000000018000c454 f   LIBCMT:loctim64.obj
 0001:0000b49c       _localtime64_s             000000018000c49c f   LIBCMT:loctim64.obj
 0001:0000b7a8       ??0_LocaleUpdate@@QEAA@PEAUlocaleinfo_struct@@@Z 000000018000c7a8 f i LIBCMT:strnicmp.obj
 0001:0000b850       __ascii_strnicmp           000000018000c850 f   LIBCMT:strnicmp.obj
 0001:0000b898       _strnicmp                  000000018000c898 f   LIBCMT:strnicmp.obj
 0001:0000b898       strnicmp                   000000018000c898 f   LIBCMT:strnicmp.obj
 0001:0000b8e8       _strnicmp_l                000000018000c8e8 f   LIBCMT:strnicmp.obj
 0001:0000b9c4       atoi                       000000018000c9c4 f   LIBCMT:atox.obj
 0001:0000b9c4       atol                       000000018000c9c4 f   LIBCMT:atox.obj
 0001:0000b9d0       isdigit                    000000018000c9d0 f i LIBCMT:_ctype.obj
 0001:0000ba4c       _isleadbyte_l              000000018000ca4c f i LIBCMT:_wctype.obj
 0001:0000ba90       isleadbyte                 000000018000ca90 f i LIBCMT:_wctype.obj
 0001:0000bad8       __ascii_stricmp            000000018000cad8 f   LIBCMT:stricmp.obj
 0001:0000bb14       _stricmp                   000000018000cb14 f   LIBCMT:stricmp.obj
 0001:0000bb14       stricmp                    000000018000cb14 f   LIBCMT:stricmp.obj
 0001:0000bb5c       _stricmp_l                 000000018000cb5c f   LIBCMT:stricmp.obj
 0001:0000bc10       _CRT_INIT                  000000018000cc10 f   LIBCMT:dllcrt0.obj
 0001:0000bd70       _DllMainCRTStartup         000000018000cd70 f   LIBCMT:dllcrt0.obj
 0001:0000bee0       strlen                     000000018000cee0 f   LIBCMT:strlen.obj
 0001:0000bf88       _CxxThrowException         000000018000cf88 f   LIBCMT:throw.obj
 0001:0000c050       ?_GetEstablisherFrame@@YAPEA_KPEA_KPEAU_xDISPATCHER_CONTEXT@@PEBU_s_FuncInfo@@0@Z 000000018000d050 f   LIBCMT:trnsctrl.obj
 0001:0000c11c       ?_GetRangeOfTrysToCheck@@YAPEBU_s_TryBlockMapEntry@@PEA_KPEBU_s_FuncInfo@@HHPEAI2PEAU_xDISPATCHER_CONTEXT@@@Z 000000018000d11c f   LIBCMT:trnsctrl.obj
 0001:0000c248       ?__FrameUnwindToEmptyState@@YAXPEA_KPEAU_xDISPATCHER_CONTEXT@@PEBU_s_FuncInfo@@@Z 000000018000d248 f   LIBCMT:trnsctrl.obj
 0001:0000c2dc       ?__SehTransFilter@@YAHPEAU_EXCEPTION_POINTERS@@PEAUEHExceptionRecord@@PEA_KPEAU_CONTEXT@@PEAU_xDISPATCHER_CONTEXT@@PEBU_s_FuncInfo@@PEAH@Z 000000018000d2dc f   LIBCMT:trnsctrl.obj
 0001:0000c380       _CallSETranslator          000000018000d380 f   LIBCMT:trnsctrl.obj
 0001:0000c3d4       _CreateFrameInfo           000000018000d3d4 f   LIBCMT:trnsctrl.obj
 0001:0000c418       _FindAndUnlinkFrame        000000018000d418 f   LIBCMT:trnsctrl.obj
 0001:0000c478       _GetImageBase              000000018000d478 f   LIBCMT:trnsctrl.obj
 0001:0000c490       _GetThrowImageBase         000000018000d490 f   LIBCMT:trnsctrl.obj
 0001:0000c4a8       _IsExceptionObjectToBeDestroyed 000000018000d4a8 f   LIBCMT:trnsctrl.obj
 0001:0000c4dc       _SetImageBase              000000018000d4dc f   LIBCMT:trnsctrl.obj
 0001:0000c4f8       _SetThrowImageBase         000000018000d4f8 f   LIBCMT:trnsctrl.obj
 0001:0000c514       _UnwindNestedFrames        000000018000d514 f   LIBCMT:trnsctrl.obj
 0001:0000c638       __CxxFrameHandler3         000000018000d638 f   LIBCMT:trnsctrl.obj
 0001:0000c6c0       ??8type_info@@QEBA_NAEBV0@@Z 000000018000d6c0 f   LIBCMT:typinfo.obj
 0001:0000c6e0       ??_Gtype_info@@UEAAPEAXI@Z 000000018000d6e0 f i LIBCMT:typinfo.obj
 0001:0000c6e0       ??_Etype_info@@UEAAPEAXI@Z 000000018000d6e0 f i LIBCMT:typinfo.obj
 0001:0000c71c       _fpmath                    000000018000d71c f   LIBCMT:fpinit.obj
 0001:0000c724       _cfltcvt_init              000000018000d724 f   LIBCMT:fpinit.obj
 0001:0000c7ac       ??0exception@std@@QEAA@AEBQEBD@Z 000000018000d7ac f   LIBCMT:stdexcpt.obj
 0001:0000c7dc       ??0exception@std@@QEAA@AEBQEBDH@Z 000000018000d7dc f   LIBCMT:stdexcpt.obj
 0001:0000c7f8       ??0exception@std@@QEAA@AEBV01@@Z 000000018000d7f8 f   LIBCMT:stdexcpt.obj
 0001:0000c824       ??1exception@std@@UEAA@XZ  000000018000d824 f   LIBCMT:stdexcpt.obj
 0001:0000c834       ??4exception@std@@QEAAAEAV01@AEBV01@@Z 000000018000d834 f   LIBCMT:stdexcpt.obj
 0001:0000c878       ??_Gexception@std@@UEAAPEAXI@Z 000000018000d878 f i LIBCMT:stdexcpt.obj
 0001:0000c878       ??_Eexception@std@@UEAAPEAXI@Z 000000018000d878 f i LIBCMT:stdexcpt.obj
 0001:0000c8b4       ?_Copy_str@exception@std@@AEAAXPEBD@Z 000000018000d8b4 f   LIBCMT:stdexcpt.obj
 0001:0000c910       ?_Tidy@exception@std@@AEAAXXZ 000000018000d910 f   LIBCMT:stdexcpt.obj
 0001:0000c938       ?what@exception@std@@UEBAPEBDXZ 000000018000d938 f   LIBCMT:stdexcpt.obj
 0001:0000c94c       __raise_securityfailure    000000018000d94c f   LIBCMT:gs_report.obj
 0001:0000c998       __report_gsfailure         000000018000d998 f   LIBCMT:gs_report.obj
 0001:0000ca6c       __report_rangecheckfailure 000000018000da6c f   LIBCMT:gs_report.obj
 0001:0000ca80       __report_securityfailure   000000018000da80 f   LIBCMT:gs_report.obj
 0001:0000cb1c       __isa_available_init       000000018000db1c f   LIBCMT:cpu_disp.obj
 0001:0000ccc0       _callnewh                  000000018000dcc0 f   LIBCMT:handler.obj
 0001:0000ccf4       _initp_heap_handler        000000018000dcf4 f   LIBCMT:handler.obj
 0001:0000ccfc       __crtCorExitProcess        000000018000dcfc f   LIBCMT:crt0dat.obj
 0001:0000cd40       __crtExitProcess           000000018000dd40 f   LIBCMT:crt0dat.obj
 0001:0000cd58       __freeCrtMemory            000000018000dd58 f   LIBCMT:crt0dat.obj
 0001:0000cea0       _amsg_exit                 000000018000dea0 f   LIBCMT:crt0dat.obj
 0001:0000cec8       _cexit                     000000018000dec8 f   LIBCMT:crt0dat.obj
 0001:0000ced8       _cinit                     000000018000ded8 f   LIBCMT:crt0dat.obj
 0001:0000cf70       _exit                      000000018000df70 f   LIBCMT:crt0dat.obj
 0001:0000cf7c       _init_pointers             000000018000df7c f   LIBCMT:crt0dat.obj
 0001:0000d028       _initterm_e                000000018000e028 f   LIBCMT:crt0dat.obj
 0001:0000d064       _lockexit                  000000018000e064 f   LIBCMT:crt0dat.obj
 0001:0000d070       _unlockexit                000000018000e070 f   LIBCMT:crt0dat.obj
 0001:0000d214       _FF_MSGBANNER              000000018000e214 f   LIBCMT:crt0msg.obj
 0001:0000d258       _GET_RTERRMSG              000000018000e258 f   LIBCMT:crt0msg.obj
 0001:0000d288       _NMSG_WRITE                000000018000e288 f   LIBCMT:crt0msg.obj
 0001:0000d4f8       __doserrno                 000000018000e4f8 f   LIBCMT:dosmap.obj
 0001:0000d518       _dosmaperr                 000000018000e518 f   LIBCMT:dosmap.obj
 0001:0000d568       _errno                     000000018000e568 f   LIBCMT:dosmap.obj
 0001:0000d588       _get_errno_from_oserr      000000018000e588 f   LIBCMT:dosmap.obj
 0001:0000d5d8       _heap_init                 000000018000e5d8 f   LIBCMT:heapinit.obj
 0001:0000d5f8       _heap_term                 000000018000e5f8 f   LIBCMT:heapinit.obj
 0001:0000d604       _call_reportfault          000000018000e604 f   LIBCMT:invarg.obj
 0001:0000d6f8       _initp_misc_invarg         000000018000e6f8 f   LIBCMT:invarg.obj
 0001:0000d700       _invalid_parameter         000000018000e700 f   LIBCMT:invarg.obj
 0001:0000d768       _invalid_parameter_noinfo  000000018000e768 f   LIBCMT:invarg.obj
 0001:0000d788       _invoke_watson             000000018000e788 f   LIBCMT:invarg.obj
 0001:0000d7c4       memcpy_s                   000000018000e7c4 f   LIBCMT:memcpy_s.obj
 0001:0000d84c       wcscat_s                   000000018000e84c f   LIBCMT:wcscat_s.obj
 0001:0000d8d4       wcscpy_s                   000000018000e8d4 f   LIBCMT:wcscpy_s.obj
 0001:0000d940       wcslen                     000000018000e940 f   LIBCMT:wcslen.obj
 0001:0000d95c       wcsncat_s                  000000018000e95c f   LIBCMT:wcsncat_s.obj
 0001:0000da44       abort                      000000018000ea44 f   LIBCMT:abort.obj
 0001:0000da9c       _set_error_mode            000000018000ea9c f   LIBCMT:errmode.obj
 0001:0000dadc       _itow_s                    000000018000eadc f   LIBCMT:xtows.obj
 0001:0000dc14       __initstdio                000000018000ec14 f   LIBCMT:_file.obj
 0001:0000dcac       __endstdio                 000000018000ecac f   LIBCMT:_file.obj
 0001:0000dcdc       __iob_func                 000000018000ecdc f   LIBCMT:_file.obj
 0001:0000dce4       _lock_file                 000000018000ece4 f   LIBCMT:_file.obj
 0001:0000dd4c       _lock_file2                000000018000ed4c f   LIBCMT:_file.obj
 0001:0000dd80       _unlock_file               000000018000ed80 f   LIBCMT:_file.obj
 0001:0000ddd0       _unlock_file2              000000018000edd0 f   LIBCMT:_file.obj
 0001:0000ddf0       _fflush_nolock             000000018000edf0 f   LIBCMT:fflush.obj
 0001:0000de3c       _flush                     000000018000ee3c f   LIBCMT:fflush.obj
 0001:0000deb8       _flushall                  000000018000eeb8 f   LIBCMT:fflush.obj
 0001:0000dec4       fflush                     000000018000eec4 f   LIBCMT:fflush.obj
 0001:0000dff0       setvbuf                    000000018000eff0 f   LIBCMT:setvbuf.obj
 0001:0000e108       fwprintf                   000000018000f108 f   LIBCMT:fwprintf.obj
 0001:0000e19c       _vswprintf_c_l             000000018000f19c f   LIBCMT:vswprnc.obj
 0001:0000e1d4       _vswprintf_helper          000000018000f1d4 f   LIBCMT:vswprnc.obj
 0001:0000e2f0       __get_sigabrt              000000018000f2f0 f   LIBCMT:winsig.obj
 0001:0000e300       _initp_misc_winsig         000000018000f300 f   LIBCMT:winsig.obj
 0001:0000e320       raise                      000000018000f320 f   LIBCMT:winsig.obj
 0001:0000e554       __crtMessageBoxW           000000018000f554 f   LIBCMT:crtmboxw.obj
 0001:0000e7c8       __GSHandlerCheck           000000018000f7c8 f   LIBCMT:gshandler.obj
 0001:0000e7e8       __GSHandlerCheckCommon     000000018000f7e8 f   LIBCMT:gshandler.obj
 0001:0000e84c       _msize                     000000018000f84c f   LIBCMT:msize.obj
 0001:0000e888       _calloc_crt                000000018000f888 f   LIBCMT:crtheap.obj
 0001:0000e908       _malloc_crt                000000018000f908 f   LIBCMT:crtheap.obj
 0001:0000e984       _realloc_crt               000000018000f984 f   LIBCMT:crtheap.obj
 0001:0000ea08       _recalloc_crt              000000018000fa08 f   LIBCMT:crtheap.obj
 0001:0000ea8c       __C_specific_handler       000000018000fa8c f   LIBCMT:chandler.obj
 0001:0000ec70       _initp_misc_purevirt       000000018000fc70 f   LIBCMT:inithelp.obj
 0001:0000ec78       free                       000000018000fc78 f   LIBCMT:free.obj
 0001:0000ecb8       _clrfp                     000000018000fcb8 f   LIBCMT:fpctrl.obj
 0001:0000ecd8       _ctrlfp                    000000018000fcd8 f   LIBCMT:fpctrl.obj
 0001:0000ed54       _set_statfp                000000018000fd54 f   LIBCMT:fpctrl.obj
 0001:0000ed74       _statfp                    000000018000fd74 f   LIBCMT:fpctrl.obj
 0001:0000eeac       _handle_error              000000018000feac f   LIBCMT:libm_error.obj
 0001:0000efd4       _flsbuf                    000000018000ffd4 f   LIBCMT:_flsbuf.obj
 0001:0000f160       _output_l                  0000000180010160 f   LIBCMT:output.obj
 0001:0000fcb0       memset                     0000000180010cb0 f   LIBCMT:memset.obj
 0001:0000fedc       _freefls                   0000000180010edc f   LIBCMT:tidtable.obj
 0001:00010010       _freeptd                   0000000180011010 f   LIBCMT:tidtable.obj
 0001:0001004c       _getptd                    000000018001104c f   LIBCMT:tidtable.obj
 0001:00010070       _getptd_noexit             0000000180011070 f   LIBCMT:tidtable.obj
 0001:000100f4       _initptd                   00000001800110f4 f   LIBCMT:tidtable.obj
 0001:000101b8       _mtinit                    00000001800111b8 f   LIBCMT:tidtable.obj
 0001:00010238       _mtterm                    0000000180011238 f   LIBCMT:tidtable.obj
 0001:0001025c       __daylight                 000000018001125c f   LIBCMT:timeset.obj
 0001:00010264       __dstbias                  0000000180011264 f   LIBCMT:timeset.obj
 0001:0001026c       __timezone                 000000018001126c f   LIBCMT:timeset.obj
 0001:00010274       __tzname                   0000000180011274 f   LIBCMT:timeset.obj
 0001:0001027c       _get_daylight              000000018001127c f   LIBCMT:timeset.obj
 0001:000102ac       _get_dstbias               00000001800112ac f   LIBCMT:timeset.obj
 0001:000102dc       _get_timezone              00000001800112dc f   LIBCMT:timeset.obj
 0001:0001030c       __tzset                    000000018001130c f   LIBCMT:tzset.obj
 0001:00010348       _isindst                   0000000180011348 f   LIBCMT:tzset.obj
 0001:00010d58       __getgmtimebuf             0000000180011d58 f   LIBCMT:gmtime.obj
 0001:00010da0       _woutput_l                 0000000180011da0 f   LIBCMT:woutput.obj
 0001:00011960       __addlocaleref             0000000180012960 f   LIBCMT:localref.obj
 0001:000119ec       __freetlocinfo             00000001800129ec f   LIBCMT:localref.obj
 0001:00011b84       __removelocaleref          0000000180012b84 f   LIBCMT:localref.obj
 0001:00011c28       __updatetlocinfo           0000000180012c28 f   LIBCMT:localref.obj
 0001:00011ca0       _updatetlocinfoEx_nolock   0000000180012ca0 f   LIBCMT:localref.obj
 0001:00011d04       __initmbctable             0000000180012d04 f   LIBCMT:mbctype.obj
 0001:00012020       __updatetmbcinfo           0000000180013020 f   LIBCMT:mbctype.obj
 0001:000120dc       _setmbcp                   00000001800130dc f   LIBCMT:mbctype.obj
 0001:00012320       _setmbcp_nolock            0000000180013320 f   LIBCMT:mbctype.obj
 0001:000125d0       _tolower_l                 00000001800135d0 f   LIBCMT:tolower.obj
 0001:00012724       tolower                    0000000180013724 f   LIBCMT:tolower.obj
 0001:00012744       _locterm                   0000000180013744 f   LIBCMT:wsetloca.obj
 0001:000129c8       strtol                     00000001800139c8 f   LIBCMT:strtol.obj
 0001:000129f8       _isctype_l                 00000001800139f8 f   LIBCMT:isctype.obj
 0001:00012ad4       _XcptFilter                0000000180013ad4 f   LIBCMT:winxfltr.obj
 0001:00012ca0       __CppXcptFilter            0000000180013ca0 f   LIBCMT:winxfltr.obj
 0001:00012cb4       _ioinit                    0000000180013cb4 f   LIBCMT:ioinit.obj
 0001:00012fe4       _ioterm                    0000000180013fe4 f   LIBCMT:ioinit.obj
 0001:00013058       _setargv                   0000000180014058 f   LIBCMT:stdargv.obj
 0001:00013314       _setenvp                   0000000180014314 f   LIBCMT:stdenvp.obj
 0001:00013448       __security_init_cookie     0000000180014448 f   LIBCMT:gs_support.obj
 0001:000134f4       DllMain                    00000001800144f4 f   LIBCMT:dllmain.obj
 0001:000134fc       __crtGetEnvironmentStringsA 00000001800144fc f   LIBCMT:a_env.obj
 0001:000135f0       __crtCaptureCurrentContext 00000001800145f0 f   LIBCMT:winapisupp.obj
 0001:00013660       __crtCapturePreviousContext 0000000180014660 f   LIBCMT:winapisupp.obj
 0001:000136d4       __crtFlsAlloc              00000001800146d4 f   LIBCMT:winapisupp.obj
 0001:000136f0       __crtFlsFree               00000001800146f0 f   LIBCMT:winapisupp.obj
 0001:0001370c       __crtFlsGetValue           000000018001470c f   LIBCMT:winapisupp.obj
 0001:00013728       __crtFlsSetValue           0000000180014728 f   LIBCMT:winapisupp.obj
 0001:00013744       __crtInitializeCriticalSectionEx 0000000180014744 f   LIBCMT:winapisupp.obj
 0001:00013770       __crtIsPackagedApp         0000000180014770 f   LIBCMT:winapisupp.obj
 0001:000137bc       __crtLoadWinApiPointers    00000001800147bc f   LIBCMT:winapisupp.obj
 0001:00013bb8       __crtSleep                 0000000180014bb8 f   LIBCMT:winapisupp.obj
 0001:00013bc0       __crtTerminateProcess      0000000180014bc0 f   LIBCMT:winapisupp.obj
 0001:00013be0       __crtUnhandledException    0000000180014be0 f   LIBCMT:winapisupp.obj
 0001:00013c00       _RTC_Initialize            0000000180014c00 f   LIBCMT:initsect.obj
 0001:00013c38       _RTC_Terminate             0000000180014c38 f   LIBCMT:initsect.obj
 0001:00013c70       __DestructExceptionObject  0000000180014c70 f   LIBCMT:frame.obj
 0001:00013ce0       ??0bad_exception@std@@QEAA@AEBV01@@Z 0000000180014ce0 f i LIBCMT:frame.obj
 0001:00013d04       ??1bad_exception@std@@UEAA@XZ 0000000180014d04 f i LIBCMT:frame.obj
 0001:00013d14       ??_Gbad_exception@std@@UEAAPEAXI@Z 0000000180014d14 f i LIBCMT:frame.obj
 0001:00013d14       ??_Ebad_exception@std@@UEAAPEAXI@Z 0000000180014d14 f i LIBCMT:frame.obj
 0001:00014608       __AdjustPointer            0000000180015608 f   LIBCMT:frame.obj
 0001:0001462c       __BuildCatchObject         000000018001562c f   LIBCMT:frame.obj
 0001:000146e4       __BuildCatchObjectHelper   00000001800156e4 f   LIBCMT:frame.obj
 0001:00014934       __CxxCallCatchBlock        0000000180015934 f   LIBCMT:frame.obj
 0001:00014b38       __FrameUnwindFilter        0000000180015b38 f   LIBCMT:frame.obj
 0001:00014b8c       __FrameUnwindToState       0000000180015b8c f   LIBCMT:frame.obj
 0001:00014d20       __InternalCxxFrameHandler  0000000180015d20 f   LIBCMT:frame.obj
 0001:00014f44       __TypeMatch                0000000180015f44 f   LIBCMT:frame.obj
 0001:00015074       ?__GetCurrentState@@YAHPEA_KPEAU_xDISPATCHER_CONTEXT@@PEBU_s_FuncInfo@@@Z 0000000180016074 f   LIBCMT:ehstate.obj
 0001:0001509c       ?__GetUnwindTryBlock@@YAHPEA_KPEAU_xDISPATCHER_CONTEXT@@PEBU_s_FuncInfo@@@Z 000000018001609c f   LIBCMT:ehstate.obj
 0001:000150c8       ?__SetState@@YAXPEA_KPEAU_xDISPATCHER_CONTEXT@@PEBU_s_FuncInfo@@H@Z 00000001800160c8 f   LIBCMT:ehstate.obj
 0001:000150d4       ?__SetUnwindTryBlock@@YAXPEA_KPEAU_xDISPATCHER_CONTEXT@@PEBU_s_FuncInfo@@H@Z 00000001800160d4 f   LIBCMT:ehstate.obj
 0001:00015110       ?__StateFromControlPc@@YAHPEBU_s_FuncInfo@@PEAU_xDISPATCHER_CONTEXT@@@Z 0000000180016110 f   LIBCMT:ehstate.obj
 0001:00015118       ?__StateFromIp@@YAHPEBU_s_FuncInfo@@PEAU_xDISPATCHER_CONTEXT@@_J@Z 0000000180016118 f   LIBCMT:ehstate.obj
 0001:000151a4       ?_inconsistency@@YAXXZ     00000001800161a4 f   LIBCMT:hooks.obj
 0001:000151c4       ?terminate@@YAXXZ          00000001800161c4 f   LIBCMT:hooks.obj
 0001:000151e4       _initp_eh_hooks            00000001800161e4 f   LIBCMT:hooks.obj
 0001:00015220       strcmp                     0000000180016220 f   LIBCMT:strcmp.obj
 0001:00015288       ?_Type_info_dtor@type_info@@CAXPEAV1@@Z 0000000180016288 f   LIBCMT:typname.obj
 0001:000152f4       _cfltcvt                   00000001800162f4 f   LIBCMT:cvt.obj
 0001:00015318       _cfltcvt_l                 0000000180016318 f   LIBCMT:cvt.obj
 0001:00015398       _cftoa_l                   0000000180016398 f   LIBCMT:cvt.obj
 0001:00015944       _cftoe_l                   0000000180016944 f   LIBCMT:cvt.obj
 0001:00015ba0       _cftof_l                   0000000180016ba0 f   LIBCMT:cvt.obj
 0001:00015c74       _cftog_l                   0000000180016c74 f   LIBCMT:cvt.obj
 0001:00015da8       _cropzeros                 0000000180016da8 f   LIBCMT:cvt.obj
 0001:00015db0       _cropzeros_l               0000000180016db0 f   LIBCMT:cvt.obj
 0001:00015e48       _fassign                   0000000180016e48 f   LIBCMT:cvt.obj
 0001:00015e50       _fassign_l                 0000000180016e50 f   LIBCMT:cvt.obj
 0001:00015e90       _forcdecpt                 0000000180016e90 f   LIBCMT:cvt.obj
 0001:00015e98       _forcdecpt_l               0000000180016e98 f   LIBCMT:cvt.obj
 0001:00015f18       _positive                  0000000180016f18 f   LIBCMT:cvt.obj
 0001:00015f2c       _initp_misc_cfltcvt_tab    0000000180016f2c f   LIBCMT:cmiscdat.obj
 0001:00015f68       strcpy_s                   0000000180016f68 f   LIBCMT:strcpy_s.obj
 0001:00015fcc       __crt_debugger_hook        0000000180016fcc f   LIBCMT:dbghook.obj
 0001:00015fd4       _lock                      0000000180016fd4 f   LIBCMT:mlock.obj
 0001:00016018       _mtdeletelocks             0000000180017018 f   LIBCMT:mlock.obj
 0001:000160a0       _mtinitlocknum             00000001800170a0 f   LIBCMT:mlock.obj
 0001:00016160       _mtinitlocks               0000000180017160 f   LIBCMT:mlock.obj
 0001:000161c4       _unlock                    00000001800171c4 f   LIBCMT:mlock.obj
 0001:000161e0       _FindPESection             00000001800171e0 f   LIBCMT:pesect.obj
 0001:00016230       _IsNonwritableInCurrentImage 0000000180017230 f   LIBCMT:pesect.obj
 0001:00016280       _ValidateImageBase         0000000180017280 f   LIBCMT:pesect.obj
 0001:000162b0       _initp_misc_rand_s         00000001800172b0 f   LIBCMT:rand_s.obj
 0001:000162b8       _ftbuf                     00000001800172b8 f   LIBCMT:_sftbuf.obj
 0001:000162f0       _stbuf                     00000001800172f0 f   LIBCMT:_sftbuf.obj
 0001:000163c0       wcsncpy_s                  00000001800173c0 f   LIBCMT:wcsncpy_s.obj
 0001:0001648c       _fcloseall                 000000018001748c f   LIBCMT:closeall.obj
 0001:00016534       _fileno                    0000000180017534 f   LIBCMT:fileno.obj
 0001:0001655c       _commit                    000000018001755c f   LIBCMT:commit.obj
 0001:00016634       _write                     0000000180017634 f   LIBCMT:write.obj
 0001:00016718       _write_nolock              0000000180017718 f   LIBCMT:write.obj
 0001:00016f0c       _freebuf                   0000000180017f0c f   LIBCMT:_freebuf.obj
 0001:00016f44       realloc                    0000000180017f44 f   LIBCMT:realloc.obj
 0001:00017018       _recalloc                  0000000180018018 f   LIBCMT:recalloc.obj
 0001:000170a0       _calloc_impl               00000001800180a0 f   LIBCMT:calloc_impl.obj
 0001:00017150       _local_unwind              0000000180018150 f   LIBCMT:jmpuwind.obj
 0001:00017180       _NLG_Notify                0000000180018180 f   LIBCMT:jmpuwind.obj
 0001:000171a0       __NLG_Dispatch2            00000001800181a0 f   LIBCMT:jmpuwind.obj
 0001:000171b0       __NLG_Return2              00000001800181b0 f   LIBCMT:jmpuwind.obj
 0001:000171b4       strncpy_s                  00000001800181b4 f   LIBCMT:strncpy_s.obj
 0001:00017270       GetTableIndexFromLocaleName 0000000180018270 f   LIBCMT:winapinls.obj
 0001:000172fc       __crtCompareStringEx       00000001800182fc f   LIBCMT:winapinls.obj
 0001:0001738c       __crtDownlevelLocaleNameToLCID 000000018001838c f   LIBCMT:winapinls.obj
 0001:000173c0       __crtLCMapStringEx         00000001800183c0 f   LIBCMT:winapinls.obj
 0001:00017450       __wcsnicmp_ascii           0000000180018450 f   LIBCMT:winapinls.obj
 0001:000174c0       _get_fpsr                  00000001800184c0 f   LIBCMT:fpsr.obj
 0001:000174d0       _set_fpsr                  00000001800184d0 f   LIBCMT:fpsr.obj
 0001:000174da       _fclrf                     00000001800184da f   LIBCMT:fpsr.obj
 0001:000174ee       _frnd                      00000001800184ee f   LIBCMT:fpsr.obj
 0001:00017510       _raise_exc                 0000000180018510 f   LIBCMT:fpexcept.obj
 0001:00017538       _raise_exc_ex              0000000180018538 f   LIBCMT:fpexcept.obj
 0001:0001783c       _set_errno_from_matherr    000000018001883c f   LIBCMT:fpexcept.obj
 0001:0001786c       _matherr                   000000018001886c f   LIBCMT:matherr.obj
 0001:00017870       _isatty                    0000000180018870 f   LIBCMT:isatty.obj
 0001:000178d0       _lseeki64                  00000001800188d0 f   LIBCMT:lseeki64.obj
 0001:000179b8       _lseeki64_nolock           00000001800189b8 f   LIBCMT:lseeki64.obj
 0001:00017a4c       _getbuf                    0000000180018a4c f   LIBCMT:_getbuf.obj
 0001:00017aa0       _get_printf_count_output   0000000180018aa0 f   LIBCMT:printf.obj
 0001:00017ab8       _wctomb_s_l                0000000180018ab8 f   LIBCMT:wctomb.obj
 0001:00017c44       wctomb_s                   0000000180018c44 f   LIBCMT:wctomb.obj
 0001:00017c58       _getenv_helper_nolock      0000000180018c58 f   LIBCMT:getenv.obj
 0001:00017cfc       ___lc_codepage_func        0000000180018cfc f   LIBCMT:initctyp.obj
 0001:00017d34       _fputwc_nolock             0000000180018d34 f   LIBCMT:fputwc.obj
 0001:00017f28       _mbtowc_l                  0000000180018f28 f   LIBCMT:mbtowc.obj
 0001:0001807c       mbtowc                     000000018001907c f   LIBCMT:mbtowc.obj
 0001:00018084       __free_lconv_mon           0000000180019084 f   LIBCMT:initmon.obj
 0001:00018190       __free_lconv_num           0000000180019190 f   LIBCMT:initnum.obj
 0001:000181fc       __free_lc_time             00000001800191fc f   LIBCMT:inittime.obj
 0001:000188e4       __crtLCMapStringA          00000001800198e4 f   LIBCMT:a_map.obj
 0001:00018af4       __crtGetStringTypeA        0000000180019af4 f   LIBCMT:a_str.obj
 0001:00018b80       memcmp                     0000000180019b80 f   LIBCMT:memcmp.obj
 0001:00018c48       __crt_atoflt_l             0000000180019c48 f   LIBCMT:atodbl.obj
 0001:00018d18       _atodbl_l                  0000000180019d18 f   LIBCMT:atodbl.obj
 0001:00018de0       _atoflt_l                  0000000180019de0 f   LIBCMT:atodbl.obj
 0001:00018e64       _ismbblead                 0000000180019e64 f   LIBCMT:ismbbyte.obj
 0001:00018e78       ?_ValidateExecute@@YAHP6A_JXZ@Z 0000000180019e78 f   LIBCMT:validate.obj
 0001:00018e78       ?_ValidateWrite@@YAHPEAXI@Z 0000000180019e78 f   LIBCMT:validate.obj
 0001:00018e78       ?_ValidateRead@@YAHPEBXI@Z 0000000180019e78 f   LIBCMT:validate.obj
 0001:00018ea0       _CallSettingFrame          0000000180019ea0 f   LIBCMT:handlers.obj
 0001:00018ee0       _GetNextInstrOffset        0000000180019ee0 f   LIBCMT:handlers.obj
 0001:00018ee8       strrchr                    0000000180019ee8 f   LIBCMT:strrchr.obj
 0001:0001902c       _fptostr                   000000018001a02c f   LIBCMT:_fptostr.obj
 0001:000190f8       __dtold                    000000018001a0f8 f   LIBCMT:cfout.obj
 0001:000191c8       _fltout2                   000000018001a1c8 f   LIBCMT:cfout.obj
 0001:00019280       _fptrap                    000000018001a280 f   LIBCMT:crt0fp.obj
 0001:0001928c       _fclose_nolock             000000018001a28c f   LIBCMT:fclose.obj
 0001:00019308       fclose                     000000018001a308 f   LIBCMT:fclose.obj
 0001:00019370       __lock_fhandle             000000018001a370 f   LIBCMT:osfinfo.obj
 0001:00019408       _free_osfhnd               000000018001a408 f   LIBCMT:osfinfo.obj
 0001:000194b4       _get_osfhandle             000000018001a4b4 f   LIBCMT:osfinfo.obj
 0001:00019528       _unlock_fhandle            000000018001a528 f   LIBCMT:osfinfo.obj
 0001:00019554       _putwch_nolock             000000018001a554 f   LIBCMT:putwch.obj
 0001:000195c0       _alloca_probe              000000018001a5c0 f   LIBCMT:chkstk.obj
 0001:000195c0       __chkstk                   000000018001a5c0 f   LIBCMT:chkstk.obj
 0001:00019610       __wtomb_environ            000000018001a610 f   LIBCMT:wtombenv.obj
 0001:00019704       _mbsnbicoll                000000018001a704 f   LIBCMT:mbsnbico.obj
 0001:0001970c       _mbsnbicoll_l              000000018001a70c f   LIBCMT:mbsnbico.obj
 0001:0001980c       _flswbuf                   000000018001a80c f   LIBCMT:_flswbuf.obj
 0001:000199a0       _ld12tod                   000000018001a9a0 f   LIBCMT:intrncvt.obj
 0001:00019f58       _ld12tof                   000000018001af58 f   LIBCMT:intrncvt.obj
 0001:0001a510       __strgtold12_l             000000018001b510 f   LIBCMT:strgtold.obj
 0001:0001ad74       $I10_OUTPUT                000000018001bd74 f   LIBCMT:x10fout.obj
 0001:0001b84c       _close                     000000018001c84c f   LIBCMT:close.obj
 0001:0001b910       _close_nolock              000000018001c910 f   LIBCMT:close.obj
 0001:0001b9cc       __termconout               000000018001c9cc f   LIBCMT:initcon.obj
 0001:0001b9ec       __initconout               000000018001c9ec f   LIBCMT:initcon.obj
 0001:0001ba28       __crtsetenv                000000018001ca28 f   LIBCMT:setenv.obj
 0001:0001bddc       _strnicoll_l               000000018001cddc f   LIBCMT:strnicol.obj
 0001:0001c244       __crtCompareStringA        000000018001d244 f   LIBCMT:a_cmp.obj
 0001:0001c2d0       __mtold12                  000000018001d2d0 f   LIBCMT:mantold.obj
 0001:0001c4f4       _strdup                    000000018001d4f4 f   LIBCMT:strdup.obj
 0001:0001c564       _mbschr                    000000018001d564 f   LIBCMT:mbschr.obj
 0001:0001c56c       _mbschr_l                  000000018001d56c f   LIBCMT:mbschr.obj
 0001:0001c62c       strchr                     000000018001d62c f   LIBCMT:strchr.obj
 0001:0001c6b6       RtlUnwindEx                000000018001d6b6 f   kernel32:KERNEL32.dll
 0001:0001c6bc       IsProcessorFeaturePresent  000000018001d6bc f   kernel32:KERNEL32.dll
 0001:0001c6c4       __GSHandlerCheck_EH        000000018001d6c4 f   LIBCMT:gshandlereh.obj
 0001:0001c754       ceil                       000000018001d754 f   LIBCMT:ceil.obj
 0001:0001c868       floor                      000000018001d868 f   LIBCMT:floor.obj
 0002:00000000       __imp_CreateFileA          000000018001f000     kernel32:KERNEL32.dll
 0002:00000008       __imp_EscapeCommFunction   000000018001f008     kernel32:KERNEL32.dll
 0002:00000010       __imp_WriteFile            000000018001f010     kernel32:KERNEL32.dll
 0002:00000018       __imp_SetCommState         000000018001f018     kernel32:KERNEL32.dll
 0002:00000020       __imp_SetCommTimeouts      000000018001f020     kernel32:KERNEL32.dll
 0002:00000028       __imp_Sleep                000000018001f028     kernel32:KERNEL32.dll
 0002:00000030       __imp_CreateEventA         000000018001f030     kernel32:KERNEL32.dll
 0002:00000038       __imp_ReadFile             000000018001f038     kernel32:KERNEL32.dll
 0002:00000040       __imp_GetOverlappedResult  000000018001f040     kernel32:KERNEL32.dll
 0002:00000048       __imp_FlushFileBuffers     000000018001f048     kernel32:KERNEL32.dll
 0002:00000050       __imp_GetLastError         000000018001f050     kernel32:KERNEL32.dll
 0002:00000058       __imp_GetProcAddress       000000018001f058     kernel32:KERNEL32.dll
 0002:00000060       __imp_LoadLibraryA         000000018001f060     kernel32:KERNEL32.dll
 0002:00000068       __imp_GetCommMask          000000018001f068     kernel32:KERNEL32.dll
 0002:00000070       __imp_SetCommMask          000000018001f070     kernel32:KERNEL32.dll
 0002:00000078       __imp_BuildCommDCBA        000000018001f078     kernel32:KERNEL32.dll
 0002:00000080       __imp_PurgeComm            000000018001f080     kernel32:KERNEL32.dll
 0002:00000088       __imp_CloseHandle          000000018001f088     kernel32:KERNEL32.dll
 0002:00000090       __imp_TlsGetValue          000000018001f090     kernel32:KERNEL32.dll
 0002:00000098       __imp_HeapAlloc            000000018001f098     kernel32:KERNEL32.dll
 0002:000000a0       __imp_SystemTimeToFileTime 000000018001f0a0     kernel32:KERNEL32.dll
 0002:000000a8       __imp_HeapFree             000000018001f0a8     kernel32:KERNEL32.dll
 0002:000000b0       __imp_GetProcessHeap       000000018001f0b0     kernel32:KERNEL32.dll
 0002:000000b8       __imp_FormatMessageA       000000018001f0b8     kernel32:KERNEL32.dll
 0002:000000c0       __imp_TlsSetValue          000000018001f0c0     kernel32:KERNEL32.dll
 0002:000000c8       __imp_WideCharToMultiByte  000000018001f0c8     kernel32:KERNEL32.dll
 0002:000000d0       __imp_IsBadCodePtr         000000018001f0d0     kernel32:KERNEL32.dll
 0002:000000d8       __imp_FileTimeToSystemTime 000000018001f0d8     kernel32:KERNEL32.dll
 0002:000000e0       __imp_MultiByteToWideChar  000000018001f0e0     kernel32:KERNEL32.dll
 0002:000000e8       __imp_TlsAlloc             000000018001f0e8     kernel32:KERNEL32.dll
 0002:000000f0       __imp_QueryDosDeviceA      000000018001f0f0     kernel32:KERNEL32.dll
 0002:000000f8       __imp_SetLastError         000000018001f0f8     kernel32:KERNEL32.dll
 0002:00000100       __imp_GetVersionExA        000000018001f100     kernel32:KERNEL32.dll
 0002:00000108       __imp_CreateFileW          000000018001f108     kernel32:KERNEL32.dll
 0002:00000110       __imp_SetStdHandle         000000018001f110     kernel32:KERNEL32.dll
 0002:00000118       __imp_SetFilePointerEx     000000018001f118     kernel32:KERNEL32.dll
 0002:00000120       __imp_LCMapStringW         000000018001f120     kernel32:KERNEL32.dll
 0002:00000128       __imp_CompareStringW       000000018001f128     kernel32:KERNEL32.dll
 0002:00000130       __imp_HeapReAlloc          000000018001f130     kernel32:KERNEL32.dll
 0002:00000138       __imp_GetConsoleMode       000000018001f138     kernel32:KERNEL32.dll
 0002:00000140       __imp_GetConsoleCP         000000018001f140     kernel32:KERNEL32.dll
 0002:00000148       __imp_GetModuleHandleW     000000018001f148     kernel32:KERNEL32.dll
 0002:00000150       __imp_TlsFree              000000018001f150     kernel32:KERNEL32.dll
 0002:00000158       __imp_TerminateProcess     000000018001f158     kernel32:KERNEL32.dll
 0002:00000160       __imp_GetCurrentProcess    000000018001f160     kernel32:KERNEL32.dll
 0002:00000168       __imp_InitializeCriticalSectionAndSpinCount 000000018001f168     kernel32:KERNEL32.dll
 0002:00000170       __imp_SetUnhandledExceptionFilter 000000018001f170     kernel32:KERNEL32.dll
 0002:00000178       __imp_UnhandledExceptionFilter 000000018001f178     kernel32:KERNEL32.dll
 0002:00000180       __imp_RtlVirtualUnwind     000000018001f180     kernel32:KERNEL32.dll
 0002:00000188       __imp_RtlCaptureContext    000000018001f188     kernel32:KERNEL32.dll
 0002:00000190       __imp_FreeEnvironmentStringsW 000000018001f190     kernel32:KERNEL32.dll
 0002:00000198       __imp_GetEnvironmentStringsW 000000018001f198     kernel32:KERNEL32.dll
 0002:000001a0       __imp_GetSystemTimeAsFileTime 000000018001f1a0     kernel32:KERNEL32.dll
 0002:000001a8       __imp_GetCurrentProcessId  000000018001f1a8     kernel32:KERNEL32.dll
 0002:000001b0       __imp_QueryPerformanceCounter 000000018001f1b0     kernel32:KERNEL32.dll
 0002:000001b8       __imp_GetModuleFileNameA   000000018001f1b8     kernel32:KERNEL32.dll
 0002:000001c0       __imp_GetStartupInfoW      000000018001f1c0     kernel32:KERNEL32.dll
 0002:000001c8       __imp_DeleteCriticalSection 000000018001f1c8     kernel32:KERNEL32.dll
 0002:000001d0       __imp_GetStringTypeW       000000018001f1d0     kernel32:KERNEL32.dll
 0002:000001d8       __imp_GetCPInfo            000000018001f1d8     kernel32:KERNEL32.dll
 0002:000001e0       __imp_GetOEMCP             000000018001f1e0     kernel32:KERNEL32.dll
 0002:000001e8       __imp_GetACP               000000018001f1e8     kernel32:KERNEL32.dll
 0002:000001f0       __imp_IsValidCodePage      000000018001f1f0     kernel32:KERNEL32.dll
 0002:000001f8       __imp_GetTimeZoneInformation 000000018001f1f8     kernel32:KERNEL32.dll
 0002:00000200       __imp_HeapSize             000000018001f200     kernel32:KERNEL32.dll
 0002:00000208       __imp_LoadLibraryExW       000000018001f208     kernel32:KERNEL32.dll
 0002:00000210       __imp_OutputDebugStringW   000000018001f210     kernel32:KERNEL32.dll
 0002:00000218       __imp_LeaveCriticalSection 000000018001f218     kernel32:KERNEL32.dll
 0002:00000220       __imp_EnterCriticalSection 000000018001f220     kernel32:KERNEL32.dll
 0002:00000228       __imp_ExitProcess          000000018001f228     kernel32:KERNEL32.dll
 0002:00000230       __imp_IsProcessorFeaturePresent 000000018001f230     kernel32:KERNEL32.dll
 0002:00000238       __imp_IsDebuggerPresent    000000018001f238     kernel32:KERNEL32.dll
 0002:00000240       __imp_RtlUnwindEx          000000018001f240     kernel32:KERNEL32.dll
 0002:00000248       __imp_RtlLookupFunctionEntry 000000018001f248     kernel32:KERNEL32.dll
 0002:00000250       __imp_RaiseException       000000018001f250     kernel32:KERNEL32.dll
 0002:00000258       __imp_RtlPcToFileHeader    000000018001f258     kernel32:KERNEL32.dll
 0002:00000260       __imp_GetCurrentThreadId   000000018001f260     kernel32:KERNEL32.dll
 0002:00000268       __imp_GetCommandLineA      000000018001f268     kernel32:KERNEL32.dll
 0002:00000270       __imp_DecodePointer        000000018001f270     kernel32:KERNEL32.dll
 0002:00000278       __imp_SetEnvironmentVariableA 000000018001f278     kernel32:KERNEL32.dll
 0002:00000280       __imp_EncodePointer        000000018001f280     kernel32:KERNEL32.dll
 0002:00000288       __imp_WriteConsoleW        000000018001f288     kernel32:KERNEL32.dll
 0002:00000290       __imp_GetModuleHandleExW   000000018001f290     kernel32:KERNEL32.dll
 0002:00000298       __imp_GetModuleFileNameW   000000018001f298     kernel32:KERNEL32.dll
 0002:000002a0       __imp_GetFileType          000000018001f2a0     kernel32:KERNEL32.dll
 0002:000002a8       __imp_GetStdHandle         000000018001f2a8     kernel32:KERNEL32.dll
 0002:000002b0       \177KERNEL32_NULL_THUNK_DATA 000000018001f2b0     kernel32:KERNEL32.dll
 0002:000002b8       __imp_VariantInit          000000018001f2b8     oleaut32:OLEAUT32.dll
 0002:000002c0       __imp_SysFreeString        000000018001f2c0     oleaut32:OLEAUT32.dll
 0002:000002c8       __imp_SysAllocString       000000018001f2c8     oleaut32:OLEAUT32.dll
 0002:000002d0       __imp_VariantClear         000000018001f2d0     oleaut32:OLEAUT32.dll
 0002:000002d8       __imp_SysAllocStringByteLen 000000018001f2d8     oleaut32:OLEAUT32.dll
 0002:000002e0       __imp_SysAllocStringLen    000000018001f2e0     oleaut32:OLEAUT32.dll
 0002:000002e8       __imp_VariantChangeType    000000018001f2e8     oleaut32:OLEAUT32.dll
 0002:000002f0       \177OLEAUT32_NULL_THUNK_DATA 000000018001f2f0     oleaut32:OLEAUT32.dll
 0002:000002f8       __imp_MessageBoxW          000000018001f2f8     user32:USER32.dll
 0002:00000300       \177USER32_NULL_THUNK_DATA 000000018001f300     user32:USER32.dll
 0002:00000308       __imp_?ToString@Value@v8@@QEBA?AV?$Local@VString@v8@@@2@XZ 000000018001f308     node:node.dll
 0002:00000310       __imp_?ToNumber@Value@v8@@QEBA?AV?$Local@VNumber@v8@@@2@XZ 000000018001f310     node:node.dll
 0002:00000318       __imp_?ToBoolean@Value@v8@@QEBA?AV?$Local@VBoolean@v8@@@2@XZ 000000018001f318     node:node.dll
 0002:00000320       __imp_??1EscapableHandleScope@v8@@QEAA@XZ 000000018001f320     node:node.dll
 0002:00000328       __imp_?New@Buffer@node@@YA?AV?$MaybeLocal@VObject@v8@@@v8@@PEAVIsolate@4@PEAD_KP6AX1PEAX@Z3@Z 000000018001f328     node:node.dll
 0002:00000330       __imp_?GetCurrent@Isolate@v8@@SAPEAV12@XZ 000000018001f330     node:node.dll
 0002:00000338       __imp_?GetCurrentContext@Isolate@v8@@QEAA?AV?$Local@VContext@v8@@@2@XZ 000000018001f338     node:node.dll
 0002:00000340       __imp_?ThrowException@Isolate@v8@@QEAA?AV?$Local@VValue@v8@@@2@V32@@Z 000000018001f340     node:node.dll
 0002:00000348       __imp_?SetName@Function@v8@@QEAAXV?$Local@VString@v8@@@2@@Z 000000018001f348     node:node.dll
 0002:00000350       __imp_?New@Integer@v8@@SA?AV?$Local@VInteger@v8@@@2@PEAVIsolate@2@H@Z 000000018001f350     node:node.dll
 0002:00000358       __imp_?New@ObjectTemplate@v8@@SA?AV?$Local@VObjectTemplate@v8@@@2@PEAVIsolate@2@V?$Local@VFunctionTemplate@v8@@@2@@Z 000000018001f358     node:node.dll
 0002:00000360       __imp_?SetInternalFieldCount@ObjectTemplate@v8@@QEAAXH@Z 000000018001f360     node:node.dll
 0002:00000368       __imp_?Set@Object@v8@@QEAA?AV?$Maybe@_N@2@V?$Local@VContext@v8@@@2@IV?$Local@VValue@v8@@@2@@Z 000000018001f368     node:node.dll
 0002:00000370       __imp_?Set@Object@v8@@QEAA?AV?$Maybe@_N@2@V?$Local@VContext@v8@@@2@V?$Local@VValue@v8@@@2@1@Z 000000018001f370     node:node.dll
 0002:00000378       __imp_?Set@Object@v8@@QEAA_NV?$Local@VValue@v8@@@2@0@Z 000000018001f378     node:node.dll
 0002:00000380       __imp_?Get@Object@v8@@QEAA?AV?$Local@VValue@v8@@@2@I@Z 000000018001f380     node:node.dll
 0002:00000388       __imp_?Get@Object@v8@@QEAA?AV?$MaybeLocal@VValue@v8@@@2@V?$Local@VContext@v8@@@2@V?$Local@VValue@v8@@@2@@Z 000000018001f388     node:node.dll
 0002:00000390       __imp_?SetInternalField@Object@v8@@QEAAXHV?$Local@VValue@v8@@@2@@Z 000000018001f390     node:node.dll
 0002:00000398       __imp_?New@Object@v8@@SA?AV?$Local@VObject@v8@@@2@PEAVIsolate@2@@Z 000000018001f398     node:node.dll
 0002:000003a0       __imp_?SlowGetInternalField@Object@v8@@AEAA?AV?$Local@VValue@v8@@@2@H@Z 000000018001f3a0     node:node.dll
 0002:000003a8       __imp_??0HandleScope@v8@@QEAA@PEAVIsolate@1@@Z 000000018001f3a8     node:node.dll
 0002:000003b0       __imp_??1HandleScope@v8@@QEAA@XZ 000000018001f3b0     node:node.dll
 0002:000003b8       __imp_?CreateHandle@HandleScope@v8@@CAPEAPEAVObject@internal@2@PEAVHeapObject@42@PEAV342@@Z 000000018001f3b8     node:node.dll
 0002:000003c0       __imp_?ToObject@Value@v8@@QEBA?AV?$Local@VObject@v8@@@2@XZ 000000018001f3c0     node:node.dll
 0002:000003c8       __imp_?New@Array@v8@@SA?AV?$Local@VArray@v8@@@2@PEAVIsolate@2@H@Z 000000018001f3c8     node:node.dll
 0002:000003d0       __imp_?Length@String@v8@@QEBAHXZ 000000018001f3d0     node:node.dll
 0002:000003d8       __imp_?WriteUtf8@String@v8@@QEBAHPEADHPEAHH@Z 000000018001f3d8     node:node.dll
 0002:000003e0       __imp_?NewFromUtf8@String@v8@@SA?AV?$MaybeLocal@VString@v8@@@2@PEAVIsolate@2@PEBDW4NewStringType@2@H@Z 000000018001f3e0     node:node.dll
 0002:000003e8       __imp_??0Utf8Value@String@v8@@QEAA@V?$Local@VValue@v8@@@2@@Z 000000018001f3e8     node:node.dll
 0002:000003f0       __imp_??1Utf8Value@String@v8@@QEAA@XZ 000000018001f3f0     node:node.dll
 0002:000003f8       __imp_?TypeError@Exception@v8@@SA?AV?$Local@VValue@v8@@@2@V?$Local@VString@v8@@@2@@Z 000000018001f3f8     node:node.dll
 0002:00000400       __imp_?Error@Exception@v8@@SA?AV?$Local@VValue@v8@@@2@V?$Local@VString@v8@@@2@@Z 000000018001f400     node:node.dll
 0002:00000408       __imp_?New@FunctionTemplate@v8@@SA?AV?$Local@VFunctionTemplate@v8@@@2@PEAVIsolate@2@P6AXAEBV?$FunctionCallbackInfo@VValue@v8@@@2@@ZV?$Local@VValue@v8@@@2@V?$Local@VSignature@v8@@@2@H@Z 000000018001f408     node:node.dll
 0002:00000410       __imp_?GetFunction@FunctionTemplate@v8@@QEAA?AV?$MaybeLocal@VFunction@v8@@@2@V?$Local@VContext@v8@@@2@@Z 000000018001f410     node:node.dll
 0002:00000418       __imp_?IsFunction@Value@v8@@QEBA_NXZ 000000018001f418     node:node.dll
 0002:00000420       __imp_?IsObject@Value@v8@@QEBA_NXZ 000000018001f420     node:node.dll
 0002:00000428       __imp_?IsInt32@Value@v8@@QEBA_NXZ 000000018001f428     node:node.dll
 0002:00000430       __imp_?ToInt32@Value@v8@@QEBA?AV?$MaybeLocal@VInt32@v8@@@2@V?$Local@VContext@v8@@@2@@Z 000000018001f430     node:node.dll
 0002:00000438       __imp_?BooleanValue@Value@v8@@QEBA_NXZ 000000018001f438     node:node.dll
 0002:00000440       __imp_?NumberValue@Value@v8@@QEBANXZ 000000018001f440     node:node.dll
 0002:00000448       __imp_?Int32Value@Value@v8@@QEBAHXZ 000000018001f448     node:node.dll
 0002:00000450       __imp_??0EscapableHandleScope@v8@@QEAA@PEAVIsolate@1@@Z 000000018001f450     node:node.dll
 0002:00000458       __imp_?Escape@EscapableHandleScope@v8@@AEAAPEAPEAVObject@internal@2@PEAPEAV342@@Z 000000018001f458     node:node.dll
 0002:00000460       __imp_?GlobalizeReference@V8@v8@@CAPEAPEAVObject@internal@2@PEAVIsolate@42@PEAPEAV342@@Z 000000018001f460     node:node.dll
 0002:00000468       __imp_?DisposeGlobal@V8@v8@@CAXPEAPEAVObject@internal@2@@Z 000000018001f468     node:node.dll
 0002:00000470       __imp_?ToLocalEmpty@V8@v8@@CAXXZ 000000018001f470     node:node.dll
 0002:00000478       __imp_?Global@Context@v8@@QEAA?AV?$Local@VObject@v8@@@2@XZ 000000018001f478     node:node.dll
 0002:00000480       __imp_uv_default_loop      000000018001f480     node:node.dll
 0002:00000488       __imp_?MakeCallback@node@@YA?AV?$Local@VValue@v8@@@v8@@PEAVIsolate@3@V?$Local@VObject@v8@@@3@V?$Local@VFunction@v8@@@3@HPEAV23@@Z 000000018001f488     node:node.dll
 0002:00000490       __imp_node_module_register 000000018001f490     node:node.dll
 0002:00000498       __imp_?HasInstance@Buffer@node@@YA_NV?$Local@VValue@v8@@@v8@@@Z 000000018001f498     node:node.dll
 0002:000004a0       __imp_?Data@Buffer@node@@YAPEADV?$Local@VObject@v8@@@v8@@@Z 000000018001f4a0     node:node.dll
 0002:000004a8       __imp_?Length@Buffer@node@@YA_KV?$Local@VObject@v8@@@v8@@@Z 000000018001f4a8     node:node.dll
 0002:000004b0       __imp_?ToInt32@Value@v8@@QEBA?AV?$Local@VInt32@v8@@@2@XZ 000000018001f4b0     node:node.dll
 0002:000004b8       __imp_uv_mutex_init        000000018001f4b8     node:node.dll
 0002:000004c0       __imp_uv_queue_work        000000018001f4c0     node:node.dll
 0002:000004c8       __imp_uv_mutex_lock        000000018001f4c8     node:node.dll
 0002:000004d0       __imp_uv_mutex_unlock      000000018001f4d0     node:node.dll
 0002:000004d8       __imp_?New@External@v8@@SA?AV?$Local@VExternal@v8@@@2@PEAVIsolate@2@PEAX@Z 000000018001f4d8     node:node.dll
 0002:000004e0       __imp_?CreateHandle@HandleScope@v8@@KAPEAPEAVObject@internal@2@PEAVIsolate@42@PEAV342@@Z 000000018001f4e0     node:node.dll
 0002:000004e8       __imp_?Value@External@v8@@QEBAPEAXXZ 000000018001f4e8     node:node.dll
 0002:000004f0       __imp_?NewInstance@ObjectTemplate@v8@@QEAA?AV?$MaybeLocal@VObject@v8@@@2@V?$Local@VContext@v8@@@2@@Z 000000018001f4f0     node:node.dll
 0002:000004f8       \177node_NULL_THUNK_DATA   000000018001f4f8     node:node.dll
 0002:00000500       __imp_CoUninitialize       000000018001f500     ole32:ole32.dll
 0002:00000508       __imp_CoGetObject          000000018001f508     ole32:ole32.dll
 0002:00000510       __imp_CoInitialize         000000018001f510     ole32:ole32.dll
 0002:00000518       \177ole32_NULL_THUNK_DATA  000000018001f518     ole32:ole32.dll
 0002:00000520       __xc_a                     000000018001f520     LIBCMT:crt0init.obj
 0002:00000528       _register_serialport_      000000018001f528     serialport.obj
 0002:00000538       __xc_z                     000000018001f538     LIBCMT:crt0init.obj
 0002:00000540       __xi_a                     000000018001f540     LIBCMT:crt0init.obj
 0002:00000568       __xi_z                     000000018001f568     LIBCMT:crt0init.obj
 0002:00000570       __xp_a                     000000018001f570     LIBCMT:crt0init.obj
 0002:00000590       __xp_z                     000000018001f590     LIBCMT:crt0init.obj
 0002:00000598       __xt_a                     000000018001f598     LIBCMT:crt0init.obj
 0002:000005a0       __xt_z                     000000018001f5a0     LIBCMT:crt0init.obj
 0002:000005e8       GUID_NULL                  000000018001f5e8     uuid:cguid_i.obj
 0002:000005f8       IID_IDispatch              000000018001f5f8     uuid:oaidl_i.obj
 0002:00000608       IID_IEnumVARIANT           000000018001f608     uuid:oaidl_i.obj
 0002:00000fc0       ??_C@_0BC@CIJDGCDI@permission?5denied?$AA@ 000000018001ffc0     libcpmt:syserror.obj
 0002:00000fd8       ??_C@_0M@MIDIAGJP@file?5exists?$AA@ 000000018001ffd8     libcpmt:syserror.obj
 0002:00000fe8       ??_C@_0P@FDINDDOK@no?5such?5device?$AA@ 000000018001ffe8     libcpmt:syserror.obj
 0002:00000ff8       ??_C@_0BC@EJHOMAAK@filename?5too?5long?$AA@ 000000018001fff8     libcpmt:syserror.obj
 0002:00001010       ??_C@_0BI@NGCEHDD@device?5or?5resource?5busy?$AA@ 0000000180020010     libcpmt:syserror.obj
 0002:00001028       ??_C@_08GLNPIFBN@io?5error?$AA@ 0000000180020028     libcpmt:syserror.obj
 0002:00001038       ??_C@_0BE@JIDOCPHM@directory?5not?5empty?$AA@ 0000000180020038     libcpmt:syserror.obj
 0002:00001050       ??_C@_0BB@FCMFBGOM@invalid?5argument?$AA@ 0000000180020050     libcpmt:syserror.obj
 0002:00001068       ??_C@_0BD@IJDJKDEA@no?5space?5on?5device?$AA@ 0000000180020068     libcpmt:syserror.obj
 0002:00001080       ??_C@_0BK@NDOCBPGE@no?5such?5file?5or?5directory?$AA@ 0000000180020080     libcpmt:syserror.obj
 0002:000010a0       ??_C@_0BH@KEFGLDAF@function?5not?5supported?$AA@ 00000001800200a0     libcpmt:syserror.obj
 0002:000010b8       ??_C@_0BC@NJECKMKE@no?5lock?5available?$AA@ 00000001800200b8     libcpmt:syserror.obj
 0002:000010d0       ??_C@_0BC@ENOOLCNF@not?5enough?5memory?$AA@ 00000001800200d0     libcpmt:syserror.obj
 0002:000010e8       ??_C@_0BP@LKNGHENJ@resource?5unavailable?5try?5again?$AA@ 00000001800200e8     libcpmt:syserror.obj
 0002:00001108       ??_C@_0BC@PPHBOELF@cross?5device?5link?$AA@ 0000000180020108     libcpmt:syserror.obj
 0002:00001120       ??_C@_0BD@MOLBPMEA@operation?5canceled?$AA@ 0000000180020120     libcpmt:syserror.obj
 0002:00001138       ??_C@_0BE@GHAFMPAH@too?5many?5files?5open?$AA@ 0000000180020138     libcpmt:syserror.obj
 0002:00001150       ??_C@_0BC@FNODOBAE@permission_denied?$AA@ 0000000180020150     libcpmt:syserror.obj
 0002:00001168       ??_C@_0P@LNDJPBFK@address_in_use?$AA@ 0000000180020168     libcpmt:syserror.obj
 0002:00001178       ??_C@_0BG@IPMGOJF@address_not_available?$AA@ 0000000180020178     libcpmt:syserror.obj
 0002:00001190       ??_C@_0BN@LCBDHODA@address_family_not_supported?$AA@ 0000000180020190     libcpmt:syserror.obj
 0002:000011b0       ??_C@_0BP@FOJJHMCC@connection_already_in_progress?$AA@ 00000001800201b0     libcpmt:syserror.obj
 0002:000011d0       ??_C@_0BE@DLHHIBGN@bad_file_descriptor?$AA@ 00000001800201d0     libcpmt:syserror.obj
 0002:000011e8       ??_C@_0BD@OJMJDIGI@connection_aborted?$AA@ 00000001800201e8     libcpmt:syserror.obj
 0002:00001200       ??_C@_0BD@NGKCIFEP@connection_refused?$AA@ 0000000180020200     libcpmt:syserror.obj
 0002:00001218       ??_C@_0BB@JOANDNCK@connection_reset?$AA@ 0000000180020218     libcpmt:syserror.obj
 0002:00001230       ??_C@_0BN@JLJNLKLK@destination_address_required?$AA@ 0000000180020230     libcpmt:syserror.obj
 0002:00001250       ??_C@_0M@IJGMGFGP@bad_address?$AA@ 0000000180020250     libcpmt:syserror.obj
 0002:00001260       ??_C@_0BB@KKNHPPIN@host_unreachable?$AA@ 0000000180020260     libcpmt:syserror.obj
 0002:00001278       ??_C@_0BG@DJGBJIIK@operation_in_progress?$AA@ 0000000180020278     libcpmt:syserror.obj
 0002:00001290       ??_C@_0M@EGEKIIMP@interrupted?$AA@ 0000000180020290     libcpmt:syserror.obj
 0002:000012a0       ??_C@_0BB@FFIHMIPJ@invalid_argument?$AA@ 00000001800202a0     libcpmt:syserror.obj
 0002:000012b8       ??_C@_0BC@FIFLCHLO@already_connected?$AA@ 00000001800202b8     libcpmt:syserror.obj
 0002:000012d0       ??_C@_0BE@GJJJJDDA@too_many_files_open?$AA@ 00000001800202d0     libcpmt:syserror.obj
 0002:000012e8       ??_C@_0N@HPMLKHPL@message_size?$AA@ 00000001800202e8     libcpmt:syserror.obj
 0002:000012f8       ??_C@_0BC@LEEIKBAL@filename_too_long?$AA@ 00000001800202f8     libcpmt:syserror.obj
 0002:00001310       ??_C@_0N@FCPALPJK@network_down?$AA@ 0000000180020310     libcpmt:syserror.obj
 0002:00001320       ??_C@_0O@EHNDLHIG@network_reset?$AA@ 0000000180020320     libcpmt:syserror.obj
 0002:00001330       ??_C@_0BE@JFNJIDNF@network_unreachable?$AA@ 0000000180020330     libcpmt:syserror.obj
 0002:00001348       ??_C@_0BA@FDIJKJCL@no_buffer_space?$AA@ 0000000180020348     libcpmt:syserror.obj
 0002:00001358       ??_C@_0BD@JHIHCGKP@no_protocol_option?$AA@ 0000000180020358     libcpmt:syserror.obj
 0002:00001370       ??_C@_0O@GBCLHHD@not_connected?$AA@ 0000000180020370     libcpmt:syserror.obj
 0002:00001380       ??_C@_0N@IMHKKLEM@not_a_socket?$AA@ 0000000180020380     libcpmt:syserror.obj
 0002:00001390       ??_C@_0BI@ICEIDKLJ@operation_not_supported?$AA@ 0000000180020390     libcpmt:syserror.obj
 0002:000013a8       ??_C@_0BH@KAPBAIJF@protocol_not_supported?$AA@ 00000001800203a8     libcpmt:syserror.obj
 0002:000013c0       ??_C@_0BE@GAOJJFPC@wrong_protocol_type?$AA@ 00000001800203c0     libcpmt:syserror.obj
 0002:000013d8       ??_C@_09NCHNLHPG@timed_out?$AA@ 00000001800203d8     libcpmt:syserror.obj
 0002:000013e8       ??_C@_0BG@GDGHKFDH@operation_would_block?$AA@ 00000001800203e8     libcpmt:syserror.obj
 0002:00001400       ??_C@_0BN@LKKBCCDB@address?5family?5not?5supported?$AA@ 0000000180020400     libcpmt:syserror.obj
 0002:00001420       ??_C@_0P@LDMLAFHI@address?5in?5use?$AA@ 0000000180020420     libcpmt:syserror.obj
 0002:00001430       ??_C@_0BG@DHPCNBJB@address?5not?5available?$AA@ 0000000180020430     libcpmt:syserror.obj
 0002:00001448       ??_C@_0BC@DFIBIBIL@already?5connected?$AA@ 0000000180020448     libcpmt:syserror.obj
 0002:00001460       ??_C@_0BH@CAKOHOMI@argument?5list?5too?5long?$AA@ 0000000180020460     libcpmt:syserror.obj
 0002:00001478       ??_C@_0BH@CGIMPKIM@argument?5out?5of?5domain?$AA@ 0000000180020478     libcpmt:syserror.obj
 0002:00001490       ??_C@_0M@KGHGGJGL@bad?5address?$AA@ 0000000180020490     libcpmt:syserror.obj
 0002:000014a0       ??_C@_0BE@MPJPGCEO@bad?5file?5descriptor?$AA@ 00000001800204a0     libcpmt:syserror.obj
 0002:000014b8       ??_C@_0M@PMMIEFCP@bad?5message?$AA@ 00000001800204b8     libcpmt:syserror.obj
 0002:000014c8       ??_C@_0M@KPHOFDBE@broken?5pipe?$AA@ 00000001800204c8     libcpmt:syserror.obj
 0002:000014d8       ??_C@_0BD@MGNDDEGM@connection?5aborted?$AA@ 00000001800204d8     libcpmt:syserror.obj
 0002:000014f0       ??_C@_0BP@KAIHPOGN@connection?5already?5in?5progress?$AA@ 00000001800204f0     libcpmt:syserror.obj
 0002:00001510       ??_C@_0BD@PJLIIJEL@connection?5refused?$AA@ 0000000180020510     libcpmt:syserror.obj
 0002:00001528       ??_C@_0BB@IECNJNOI@connection?5reset?$AA@ 0000000180020528     libcpmt:syserror.obj
 0002:00001540       ??_C@_0BN@KDMIFEIP@destination?5address?5required?$AA@ 0000000180020540     libcpmt:syserror.obj
 0002:00001560       ??_C@_0BI@BNCLIGPB@executable?5format?5error?$AA@ 0000000180020560     libcpmt:syserror.obj
 0002:00001578       ??_C@_0P@DNAJLBJK@file?5too?5large?$AA@ 0000000180020578     libcpmt:syserror.obj
 0002:00001588       ??_C@_0BB@DHFDFGDM@host?5unreachable?$AA@ 0000000180020588     libcpmt:syserror.obj
 0002:000015a0       ??_C@_0BD@JPHBMONG@identifier?5removed?$AA@ 00000001800205a0     libcpmt:syserror.obj
 0002:000015b8       ??_C@_0BG@CDNPAGJK@illegal?5byte?5sequence?$AA@ 00000001800205b8     libcpmt:syserror.obj
 0002:000015d0       ??_C@_0CD@BNPLBMNA@inappropriate?5io?5control?5operati@ 00000001800205d0     libcpmt:syserror.obj
 0002:000015f8       ??_C@_0N@OHAFKDEK@invalid?5seek?$AA@ 00000001800205f8     libcpmt:syserror.obj
 0002:00001608       ??_C@_0P@FLLDBIDK@is?5a?5directory?$AA@ 0000000180020608     libcpmt:syserror.obj
 0002:00001618       ??_C@_0N@IFLPBIOP@message?5size?$AA@ 0000000180020618     libcpmt:syserror.obj
 0002:00001628       ??_C@_0N@KIIEAAIO@network?5down?$AA@ 0000000180020628     libcpmt:syserror.obj
 0002:00001638       ??_C@_0O@FNPDBHEE@network?5reset?$AA@ 0000000180020638     libcpmt:syserror.obj
 0002:00001648       ??_C@_0BE@IFNCKGE@network?5unreachable?$AA@ 0000000180020648     libcpmt:syserror.obj
 0002:00001660       ??_C@_0BA@PFFCAOFK@no?5buffer?5space?$AA@ 0000000180020660     libcpmt:syserror.obj
 0002:00001670       ??_C@_0BB@IEPBLJHK@no?5child?5process?$AA@ 0000000180020670     libcpmt:syserror.obj
 0002:00001688       ??_C@_07PLECNNKG@no?5link?$AA@ 0000000180020688     libcpmt:syserror.obj
 0002:00001690       ??_C@_0BF@PBGGPKKE@no?5message?5available?$AA@ 0000000180020690     libcpmt:syserror.obj
 0002:000016a8       ??_C@_0L@EDOLMPAK@no?5message?$AA@ 00000001800206a8     libcpmt:syserror.obj
 0002:000016b8       ??_C@_0BD@EAMBFIDF@no?5protocol?5option?$AA@ 00000001800206b8     libcpmt:syserror.obj
 0002:000016d0       ??_C@_0BE@MKFDAFMP@no?5stream?5resources?$AA@ 00000001800206d0     libcpmt:syserror.obj
 0002:000016e8       ??_C@_0BK@IMCPHCBI@no?5such?5device?5or?5address?$AA@ 00000001800206e8     libcpmt:syserror.obj
 0002:00001708       ??_C@_0BA@ENLPPKBN@no?5such?5process?$AA@ 0000000180020708     libcpmt:syserror.obj
 0002:00001718       ??_C@_0BA@DOCPFFJG@not?5a?5directory?$AA@ 0000000180020718     libcpmt:syserror.obj
 0002:00001728       ??_C@_0N@POEIPGGF@not?5a?5socket?$AA@ 0000000180020728     libcpmt:syserror.obj
 0002:00001738       ??_C@_0N@LGAPMMPI@not?5a?5stream?$AA@ 0000000180020738     libcpmt:syserror.obj
 0002:00001748       ??_C@_0O@GLMIBBEG@not?5connected?$AA@ 0000000180020748     libcpmt:syserror.obj
 0002:00001758       ??_C@_0O@NHEDABJP@not?5supported?$AA@ 0000000180020758     libcpmt:syserror.obj
 0002:00001768       ??_C@_0BG@KDKHOPCO@operation?5in?5progress?$AA@ 0000000180020768     libcpmt:syserror.obj
 0002:00001780       ??_C@_0BI@OHIEJAAB@operation?5not?5permitted?$AA@ 0000000180020780     libcpmt:syserror.obj
 0002:00001798       ??_C@_0BI@LNEGIFLN@operation?5not?5supported?$AA@ 0000000180020798     libcpmt:syserror.obj
 0002:000017b0       ??_C@_0BG@OEMDKMEE@operation?5would?5block?$AA@ 00000001800207b0     libcpmt:syserror.obj
 0002:000017c8       ??_C@_0L@BLPOFLNJ@owner?5dead?$AA@ 00000001800207c8     libcpmt:syserror.obj
 0002:000017d8       ??_C@_0P@FNPOCJBE@protocol?5error?$AA@ 00000001800207d8     libcpmt:syserror.obj
 0002:000017e8       ??_C@_0BH@JPPPLHJB@protocol?5not?5supported?$AA@ 00000001800207e8     libcpmt:syserror.obj
 0002:00001800       ??_C@_0BG@EICBIHDP@read?5only?5file?5system?$AA@ 0000000180020800     libcpmt:syserror.obj
 0002:00001818       ??_C@_0BO@BJBOMOEJ@resource?5deadlock?5would?5occur?$AA@ 0000000180020818     libcpmt:syserror.obj
 0002:00001838       ??_C@_0BE@GOIPJJHG@result?5out?5of?5range?$AA@ 0000000180020838     libcpmt:syserror.obj
 0002:00001850       ??_C@_0BG@MPLKFPAE@state?5not?5recoverable?$AA@ 0000000180020850     libcpmt:syserror.obj
 0002:00001868       ??_C@_0P@DIIFGFCG@stream?5timeout?$AA@ 0000000180020868     libcpmt:syserror.obj
 0002:00001878       ??_C@_0P@IPFDMIFL@text?5file?5busy?$AA@ 0000000180020878     libcpmt:syserror.obj
 0002:00001888       ??_C@_09KJPPMAOI@timed?5out?$AA@ 0000000180020888     libcpmt:syserror.obj
 0002:00001898       ??_C@_0BO@HACHBEKI@too?5many?5files?5open?5in?5system?$AA@ 0000000180020898     libcpmt:syserror.obj
 0002:000018b8       ??_C@_0P@HCOMKFCC@too?5many?5links?$AA@ 00000001800208b8     libcpmt:syserror.obj
 0002:000018c8       ??_C@_0BO@EFGOJEF@too?5many?5symbolic?5link?5levels?$AA@ 00000001800208c8     libcpmt:syserror.obj
 0002:000018e8       ??_C@_0BA@KGKGOOJA@value?5too?5large?$AA@ 00000001800208e8     libcpmt:syserror.obj
 0002:000018f8       ??_C@_0BE@MIEJDDNH@wrong?5protocol?5type?$AA@ 00000001800208f8     libcpmt:syserror.obj
 0002:00001918       ??_7bad_alloc@std@@6B@     0000000180020918     libcpmt:xthrow.obj
 0002:00001928       ??_C@_0P@GHFPNOJB@bad?5allocation?$AA@ 0000000180020928     libcpmt:xthrow.obj
 0002:00001940       ??_7logic_error@std@@6B@   0000000180020940     libcpmt:xthrow.obj
 0002:00001958       ??_7length_error@std@@6B@  0000000180020958     libcpmt:xthrow.obj
 0002:00001970       ??_7out_of_range@std@@6B@  0000000180020970     libcpmt:xthrow.obj
 0002:00001980       ??_C@_17LGKOMLJ@?$AA?4?$AA?4?$AA?4?$AA?$AA@ 0000000180020980     LIBCMT:wassert.obj
 0002:00001988       ??_C@_13LBAGMAIH@?$AA?6?$AA?$AA@ 0000000180020988     LIBCMT:wassert.obj
 0002:0000198c       ??_C@_15IABLJNFO@?$AA?6?$AA?6?$AA?$AA@ 000000018002098c     LIBCMT:wassert.obj
 0002:00001998       ??_C@_1CE@OJBNHDMO@?$AAA?$AAs?$AAs?$AAe?$AAr?$AAt?$AAi?$AAo?$AAn?$AA?5?$AAf?$AAa?$AAi?$AAl?$AAe?$AAd?$AA?$CB?$AA?$AA@ 0000000180020998     LIBCMT:wassert.obj
 0002:000019c0       ??_C@_1BE@PHKBBGE@?$AAP?$AAr?$AAo?$AAg?$AAr?$AAa?$AAm?$AA?3?$AA?5?$AA?$AA@ 00000001800209c0     LIBCMT:wassert.obj
 0002:000019d8       ??_C@_1CO@EAEJAADC@?$AA?$DM?$AAp?$AAr?$AAo?$AAg?$AAr?$AAa?$AAm?$AA?5?$AAn?$AAa?$AAm?$AAe?$AA?5?$AAu?$AAn?$AAk?$AAn?$AAo?$AAw?$AAn?$AA?$DO?$AA?$AA@ 00000001800209d8     LIBCMT:wassert.obj
 0002:00001a08       ??_C@_1O@HEMHKNDC@?$AAF?$AAi?$AAl?$AAe?$AA?3?$AA?5?$AA?$AA@ 0000000180020a08     LIBCMT:wassert.obj
 0002:00001a18       ??_C@_1O@KCAFKHJE@?$AAL?$AAi?$AAn?$AAe?$AA?3?$AA?5?$AA?$AA@ 0000000180020a18     LIBCMT:wassert.obj
 0002:00001a28       ??_C@_1BK@PEDCIPMA@?$AAE?$AAx?$AAp?$AAr?$AAe?$AAs?$AAs?$AAi?$AAo?$AAn?$AA?3?$AA?5?$AA?$AA@ 0000000180020a28     LIBCMT:wassert.obj
 0002:00001a50       ??_C@_1OA@EGMLFBHJ@?$AAF?$AAo?$AAr?$AA?5?$AAi?$AAn?$AAf?$AAo?$AAr?$AAm?$AAa?$AAt?$AAi?$AAo?$AAn?$AA?5?$AAo?$AAn?$AA?5?$AAh?$AAo?$AAw?$AA?5?$AAy?$AAo?$AAu?$AAr?$AA?5?$AAp?$AAr?$AAo?$AAg@ 0000000180020a50     LIBCMT:wassert.obj
 0002:00001b30       ??_C@_1HK@POCJMFGK@?$AA?$CI?$AAP?$AAr?$AAe?$AAs?$AAs?$AA?5?$AAR?$AAe?$AAt?$AAr?$AAy?$AA?5?$AAt?$AAo?$AA?5?$AAd?$AAe?$AAb?$AAu?$AAg?$AA?5?$AAt?$AAh?$AAe?$AA?5?$AAa?$AAp?$AAp?$AAl?$AAi?$AAc@ 0000000180020b30     LIBCMT:wassert.obj
 0002:00001bb0       ??_C@_1EK@MBDPDCGA@?$AAM?$AAi?$AAc?$AAr?$AAo?$AAs?$AAo?$AAf?$AAt?$AA?5?$AAV?$AAi?$AAs?$AAu?$AAa?$AAl?$AA?5?$AAC?$AA?$CL?$AA?$CL?$AA?5?$AAR?$AAu?$AAn?$AAt?$AAi?$AAm?$AAe?$AA?5?$AAL?$AAi?$AAb@ 0000000180020bb0     LIBCMT:wassert.obj
 0002:00001bfc       ??_C@_06MEIMCGCF@_hypot?$AA@ 0000000180020bfc     LIBCMT:hypot.obj
 0002:00001c08       _pRawDllMain               0000000180020c08     LIBCMT:dllcrt0.obj
 0002:00001c08       _pDefaultRawDllMain        0000000180020c08     LIBCMT:dllcrt0.obj
 0002:00001cf0       ??_7type_info@@6B@         0000000180020cf0     LIBCMT:typinfo.obj
 0002:00001cf8       _FPinit                    0000000180020cf8     LIBCMT:fpinit.obj
 0002:00001d08       ??_7exception@std@@6B@     0000000180020d08     LIBCMT:stdexcpt.obj
 0002:00001d18       ??_C@_0BC@EOODALEL@Unknown?5exception?$AA@ 0000000180020d18     LIBCMT:stdexcpt.obj
 0002:00001d40       ??_C@_1BI@BGOHAHKC@?$AAm?$AAs?$AAc?$AAo?$AAr?$AAe?$AAe?$AA?4?$AAd?$AAl?$AAl?$AA?$AA@ 0000000180020d40     LIBCMT:crt0dat.obj
 0002:00001d58       ??_C@_0P@MIGLKIOC@CorExitProcess?$AA@ 0000000180020d58     LIBCMT:crt0dat.obj
 0002:00001ee0       ??_C@_1FK@PGACCAFB@?$AAR?$AA6?$AA0?$AA0?$AA2?$AA?$AN?$AA?6?$AA?9?$AA?5?$AAf?$AAl?$AAo?$AAa?$AAt?$AAi?$AAn?$AAg?$AA?5?$AAp?$AAo?$AAi?$AAn?$AAt?$AA?5?$AAs?$AAu?$AAp?$AAp?$AAo?$AAr?$AAt?$AA?5@ 0000000180020ee0     LIBCMT:crt0msg.obj
 0002:00001f40       ??_C@_1FE@LLNEDJMD@?$AAR?$AA6?$AA0?$AA0?$AA8?$AA?$AN?$AA?6?$AA?9?$AA?5?$AAn?$AAo?$AAt?$AA?5?$AAe?$AAn?$AAo?$AAu?$AAg?$AAh?$AA?5?$AAs?$AAp?$AAa?$AAc?$AAe?$AA?5?$AAf?$AAo?$AAr?$AA?5?$AAa?$AAr@ 0000000180020f40     LIBCMT:crt0msg.obj
 0002:00001fa0       ??_C@_1FI@HONFMGBI@?$AAR?$AA6?$AA0?$AA0?$AA9?$AA?$AN?$AA?6?$AA?9?$AA?5?$AAn?$AAo?$AAt?$AA?5?$AAe?$AAn?$AAo?$AAu?$AAg?$AAh?$AA?5?$AAs?$AAp?$AAa?$AAc?$AAe?$AA?5?$AAf?$AAo?$AAr?$AA?5?$AAe?$AAn@ 0000000180020fa0     LIBCMT:crt0msg.obj
 0002:00002000       ??_C@_1EG@BEHAGFJD@?$AAR?$AA6?$AA0?$AA1?$AA0?$AA?$AN?$AA?6?$AA?9?$AA?5?$AAa?$AAb?$AAo?$AAr?$AAt?$AA?$CI?$AA?$CJ?$AA?5?$AAh?$AAa?$AAs?$AA?5?$AAb?$AAe?$AAe?$AAn?$AA?5?$AAc?$AAa?$AAl?$AAl?$AAe?$AAd@ 0000000180021000     LIBCMT:crt0msg.obj
 0002:00002050       ??_C@_1FI@LOGNIKDM@?$AAR?$AA6?$AA0?$AA1?$AA6?$AA?$AN?$AA?6?$AA?9?$AA?5?$AAn?$AAo?$AAt?$AA?5?$AAe?$AAn?$AAo?$AAu?$AAg?$AAh?$AA?5?$AAs?$AAp?$AAa?$AAc?$AAe?$AA?5?$AAf?$AAo?$AAr?$AA?5?$AAt?$AAh@ 0000000180021050     LIBCMT:crt0msg.obj
 0002:000020b0       ??_C@_1FK@BEOGODMC@?$AAR?$AA6?$AA0?$AA1?$AA7?$AA?$AN?$AA?6?$AA?9?$AA?5?$AAu?$AAn?$AAe?$AAx?$AAp?$AAe?$AAc?$AAt?$AAe?$AAd?$AA?5?$AAm?$AAu?$AAl?$AAt?$AAi?$AAt?$AAh?$AAr?$AAe?$AAa?$AAd?$AA?5@ 00000001800210b0     LIBCMT:crt0msg.obj
 0002:00002110       ??_C@_1EC@JIBHAOPH@?$AAR?$AA6?$AA0?$AA1?$AA8?$AA?$AN?$AA?6?$AA?9?$AA?5?$AAu?$AAn?$AAe?$AAx?$AAp?$AAe?$AAc?$AAt?$AAe?$AAd?$AA?5?$AAh?$AAe?$AAa?$AAp?$AA?5?$AAe?$AAr?$AAr?$AAo?$AAr?$AA?$AN?$AA?6@ 0000000180021110     LIBCMT:crt0msg.obj
 0002:00002160       ??_C@_1FC@ECHBIFBC@?$AAR?$AA6?$AA0?$AA1?$AA9?$AA?$AN?$AA?6?$AA?9?$AA?5?$AAu?$AAn?$AAa?$AAb?$AAl?$AAe?$AA?5?$AAt?$AAo?$AA?5?$AAo?$AAp?$AAe?$AAn?$AA?5?$AAc?$AAo?$AAn?$AAs?$AAo?$AAl?$AAe?$AA?5@ 0000000180021160     LIBCMT:crt0msg.obj
 0002:000021c0       ??_C@_1GK@FHCKBEFA@?$AAR?$AA6?$AA0?$AA2?$AA4?$AA?$AN?$AA?6?$AA?9?$AA?5?$AAn?$AAo?$AAt?$AA?5?$AAe?$AAn?$AAo?$AAu?$AAg?$AAh?$AA?5?$AAs?$AAp?$AAa?$AAc?$AAe?$AA?5?$AAf?$AAo?$AAr?$AA?5?$AA_?$AAo@ 00000001800211c0     LIBCMT:crt0msg.obj
 0002:00002230       ??_C@_1EM@MAADIHMB@?$AAR?$AA6?$AA0?$AA2?$AA5?$AA?$AN?$AA?6?$AA?9?$AA?5?$AAp?$AAu?$AAr?$AAe?$AA?5?$AAv?$AAi?$AAr?$AAt?$AAu?$AAa?$AAl?$AA?5?$AAf?$AAu?$AAn?$AAc?$AAt?$AAi?$AAo?$AAn?$AA?5?$AAc@ 0000000180021230     LIBCMT:crt0msg.obj
 0002:00002280       ??_C@_1GK@MCAAGJMO@?$AAR?$AA6?$AA0?$AA2?$AA6?$AA?$AN?$AA?6?$AA?9?$AA?5?$AAn?$AAo?$AAt?$AA?5?$AAe?$AAn?$AAo?$AAu?$AAg?$AAh?$AA?5?$AAs?$AAp?$AAa?$AAc?$AAe?$AA?5?$AAf?$AAo?$AAr?$AA?5?$AAs?$AAt@ 0000000180021280     LIBCMT:crt0msg.obj
 0002:000022f0       ??_C@_1GK@MFGOKLAG@?$AAR?$AA6?$AA0?$AA2?$AA7?$AA?$AN?$AA?6?$AA?9?$AA?5?$AAn?$AAo?$AAt?$AA?5?$AAe?$AAn?$AAo?$AAu?$AAg?$AAh?$AA?5?$AAs?$AAp?$AAa?$AAc?$AAe?$AA?5?$AAf?$AAo?$AAr?$AA?5?$AAl?$AAo@ 00000001800212f0     LIBCMT:crt0msg.obj
 0002:00002360       ??_C@_1EK@HHFLMAOL@?$AAR?$AA6?$AA0?$AA2?$AA8?$AA?$AN?$AA?6?$AA?9?$AA?5?$AAu?$AAn?$AAa?$AAb?$AAl?$AAe?$AA?5?$AAt?$AAo?$AA?5?$AAi?$AAn?$AAi?$AAt?$AAi?$AAa?$AAl?$AAi?$AAz?$AAe?$AA?5?$AAh?$AAe@ 0000000180021360     LIBCMT:crt0msg.obj
 0002:000023b0       ??_C@_1DO@BMFCDCD@?$AAR?$AA6?$AA0?$AA3?$AA0?$AA?$AN?$AA?6?$AA?9?$AA?5?$AAC?$AAR?$AAT?$AA?5?$AAn?$AAo?$AAt?$AA?5?$AAi?$AAn?$AAi?$AAt?$AAi?$AAa?$AAl?$AAi?$AAz?$AAe?$AAd?$AA?$AN?$AA?6?$AA?$AA@ 00000001800213b0     LIBCMT:crt0msg.obj
 0002:000023f0       ??_C@_1MG@ENCOOIDF@?$AAR?$AA6?$AA0?$AA3?$AA1?$AA?$AN?$AA?6?$AA?9?$AA?5?$AAA?$AAt?$AAt?$AAe?$AAm?$AAp?$AAt?$AA?5?$AAt?$AAo?$AA?5?$AAi?$AAn?$AAi?$AAt?$AAi?$AAa?$AAl?$AAi?$AAz?$AAe?$AA?5?$AAt@ 00000001800213f0     LIBCMT:crt0msg.obj
 0002:000024c0       ??_C@_1GG@GOPILAJP@?$AAR?$AA6?$AA0?$AA3?$AA2?$AA?$AN?$AA?6?$AA?9?$AA?5?$AAn?$AAo?$AAt?$AA?5?$AAe?$AAn?$AAo?$AAu?$AAg?$AAh?$AA?5?$AAs?$AAp?$AAa?$AAc?$AAe?$AA?5?$AAf?$AAo?$AAr?$AA?5?$AAl?$AAo@ 00000001800214c0     LIBCMT:crt0msg.obj
 0002:00002530       ??_C@_1BOO@KGEDBGAJ@?$AAR?$AA6?$AA0?$AA3?$AA3?$AA?$AN?$AA?6?$AA?9?$AA?5?$AAA?$AAt?$AAt?$AAe?$AAm?$AAp?$AAt?$AA?5?$AAt?$AAo?$AA?5?$AAu?$AAs?$AAe?$AA?5?$AAM?$AAS?$AAI?$AAL?$AA?5?$AAc?$AAo?$AAd@ 0000000180021530     LIBCMT:crt0msg.obj
 0002:00002720       ??_C@_1GG@MKFPEKFO@?$AAR?$AA6?$AA0?$AA3?$AA4?$AA?$AN?$AA?6?$AA?9?$AA?5?$AAi?$AAn?$AAc?$AAo?$AAn?$AAs?$AAi?$AAs?$AAt?$AAe?$AAn?$AAt?$AA?5?$AAo?$AAn?$AAe?$AAx?$AAi?$AAt?$AA?5?$AAb?$AAe?$AAg@ 0000000180021720     LIBCMT:crt0msg.obj
 0002:00002788       ??_C@_1BO@BFCDCGC@?$AAD?$AAO?$AAM?$AAA?$AAI?$AAN?$AA?5?$AAe?$AAr?$AAr?$AAo?$AAr?$AA?$AN?$AA?6?$AA?$AA@ 0000000180021788     LIBCMT:crt0msg.obj
 0002:000027a8       ??_C@_1BK@KMOMNAAI@?$AAS?$AAI?$AAN?$AAG?$AA?5?$AAe?$AAr?$AAr?$AAo?$AAr?$AA?$AN?$AA?6?$AA?$AA@ 00000001800217a8     LIBCMT:crt0msg.obj
 0002:000027c8       ??_C@_1BM@JBBEPPHI@?$AAT?$AAL?$AAO?$AAS?$AAS?$AA?5?$AAe?$AAr?$AAr?$AAo?$AAr?$AA?$AN?$AA?6?$AA?$AA@ 00000001800217c8     LIBCMT:crt0msg.obj
 0002:000027e4       ??_C@_15JNBOKNOG@?$AA?$AN?$AA?6?$AA?$AA@ 00000001800217e4     LIBCMT:crt0msg.obj
 0002:000027f0       ??_C@_1BO@BKOMIGKJ@?$AAr?$AAu?$AAn?$AAt?$AAi?$AAm?$AAe?$AA?5?$AAe?$AAr?$AAr?$AAo?$AAr?$AA?5?$AA?$AA@ 00000001800217f0     LIBCMT:crt0msg.obj
 0002:00002810       ??_C@_1DE@JNGNBFGO@?$AAR?$AAu?$AAn?$AAt?$AAi?$AAm?$AAe?$AA?5?$AAE?$AAr?$AAr?$AAo?$AAr?$AA?$CB?$AA?6?$AA?6?$AAP?$AAr?$AAo?$AAg?$AAr?$AAa?$AAm?$AA?3?$AA?5?$AA?$AA@ 0000000180021810     LIBCMT:crt0msg.obj
 0002:00002848       ??_C@_1BG@GOEBHBDC@?$AAU?$AAS?$AAE?$AAR?$AA3?$AA2?$AA?4?$AAD?$AAL?$AAL?$AA?$AA@ 0000000180021848     LIBCMT:crtmboxw.obj
 0002:00002860       ??_C@_0M@DLDCCGNP@MessageBoxW?$AA@ 0000000180021860     LIBCMT:crtmboxw.obj
 0002:00002870       ??_C@_0BA@HNOPNCHB@GetActiveWindow?$AA@ 0000000180021870     LIBCMT:crtmboxw.obj
 0002:00002880       ??_C@_0BD@HHGDFDBJ@GetLastActivePopup?$AA@ 0000000180021880     LIBCMT:crtmboxw.obj
 0002:00002898       ??_C@_0BK@DEKFELLI@GetUserObjectInformationW?$AA@ 0000000180021898     LIBCMT:crtmboxw.obj
 0002:000028b8       ??_C@_0BI@DFKBFLJE@GetProcessWindowStation?$AA@ 00000001800218b8     LIBCMT:crtmboxw.obj
 0002:000028d0       ??_C@_06OJHGLDPL@?$CInull?$CJ?$AA@ 00000001800218d0     LIBCMT:output.obj
 0002:000028d8       ??_C@_1O@CEDCILHN@?$AA?$CI?$AAn?$AAu?$AAl?$AAl?$AA?$CJ?$AA?$AA@ 00000001800218d8     LIBCMT:output.obj
 0002:000028f0       __lookuptable              00000001800218f0     LIBCMT:output.obj
 0002:00002950       __dnames                   0000000180021950     LIBCMT:timeset.obj
 0002:00002968       __mnames                   0000000180021968     LIBCMT:timeset.obj
 0002:00002990       ??_C@_02CLFPBFFP@TZ?$AA@   0000000180021990     LIBCMT:tzset.obj
 0002:000029b8       ??_C@_1M@HPNHIDJI@?$AAj?$AAa?$AA?9?$AAJ?$AAP?$AA?$AA@ 00000001800219b8     LIBCMT:mbctype.obj
 0002:000029c8       ??_C@_1M@BIBDDEMK@?$AAz?$AAh?$AA?9?$AAC?$AAN?$AA?$AA@ 00000001800219c8     LIBCMT:mbctype.obj
 0002:000029d8       ??_C@_1M@JLOOOEGK@?$AAk?$AAo?$AA?9?$AAK?$AAR?$AA?$AA@ 00000001800219d8     LIBCMT:mbctype.obj
 0002:000029e8       ??_C@_1M@CLNBBOPM@?$AAz?$AAh?$AA?9?$AAT?$AAW?$AA?$AA@ 00000001800219e8     LIBCMT:mbctype.obj
 0002:000029f4       ??_C@_03KOEHGMDN@Sun?$AA@  00000001800219f4     LIBCMT:nlsdata.obj
 0002:000029f8       ??_C@_03PDAGKDH@Mon?$AA@   00000001800219f8     LIBCMT:nlsdata.obj
 0002:000029fc       ??_C@_03NAGEINEP@Tue?$AA@  00000001800219fc     LIBCMT:nlsdata.obj
 0002:00002a00       ??_C@_03MHOMLAJA@Wed?$AA@  0000000180021a00     LIBCMT:nlsdata.obj
 0002:00002a04       ??_C@_03IOFIKPDN@Thu?$AA@  0000000180021a04     LIBCMT:nlsdata.obj
 0002:00002a08       ??_C@_03IDIOELNC@Fri?$AA@  0000000180021a08     LIBCMT:nlsdata.obj
 0002:00002a0c       ??_C@_03FEFJNEK@Sat?$AA@   0000000180021a0c     LIBCMT:nlsdata.obj
 0002:00002a10       ??_C@_06OOPIFAJ@Sunday?$AA@ 0000000180021a10     LIBCMT:nlsdata.obj
 0002:00002a18       ??_C@_06JLEDEDGH@Monday?$AA@ 0000000180021a18     LIBCMT:nlsdata.obj
 0002:00002a20       ??_C@_07BAAGCFCM@Tuesday?$AA@ 0000000180021a20     LIBCMT:nlsdata.obj
 0002:00002a28       ??_C@_09DLIGFAKA@Wednesday?$AA@ 0000000180021a28     LIBCMT:nlsdata.obj
 0002:00002a38       ??_C@_08HACCIKIA@Thursday?$AA@ 0000000180021a38     LIBCMT:nlsdata.obj
 0002:00002a44       ??_C@_06JECMNKMI@Friday?$AA@ 0000000180021a44     LIBCMT:nlsdata.obj
 0002:00002a50       ??_C@_08INBOOONO@Saturday?$AA@ 0000000180021a50     LIBCMT:nlsdata.obj
 0002:00002a5c       ??_C@_03JIHJHPIE@Jan?$AA@  0000000180021a5c     LIBCMT:nlsdata.obj
 0002:00002a60       ??_C@_03HJBDCHOM@Feb?$AA@  0000000180021a60     LIBCMT:nlsdata.obj
 0002:00002a64       ??_C@_03ODNJBKGA@Mar?$AA@  0000000180021a64     LIBCMT:nlsdata.obj
 0002:00002a68       ??_C@_03LEOLGMJP@Apr?$AA@  0000000180021a68     LIBCMT:nlsdata.obj
 0002:00002a6c       ??_C@_03CNMDKL@May?$AA@    0000000180021a6c     LIBCMT:nlsdata.obj
 0002:00002a70       ??_C@_03IDFGHECI@Jun?$AA@  0000000180021a70     LIBCMT:nlsdata.obj
 0002:00002a74       ??_C@_03LBGABGKK@Jul?$AA@  0000000180021a74     LIBCMT:nlsdata.obj
 0002:00002a78       ??_C@_03IFJFEIGA@Aug?$AA@  0000000180021a78     LIBCMT:nlsdata.obj
 0002:00002a7c       ??_C@_03GGCAPAJC@Sep?$AA@  0000000180021a7c     LIBCMT:nlsdata.obj
 0002:00002a80       ??_C@_03BMAOKBAD@Oct?$AA@  0000000180021a80     LIBCMT:nlsdata.obj
 0002:00002a84       ??_C@_03JPJOFNIA@Nov?$AA@  0000000180021a84     LIBCMT:nlsdata.obj
 0002:00002a88       ??_C@_03MKABNOCG@Dec?$AA@  0000000180021a88     LIBCMT:nlsdata.obj
 0002:00002a90       ??_C@_07CGJPFGJA@January?$AA@ 0000000180021a90     LIBCMT:nlsdata.obj
 0002:00002a98       ??_C@_08GNJGEPFN@February?$AA@ 0000000180021a98     LIBCMT:nlsdata.obj
 0002:00002aa4       ??_C@_05HPCKOFNC@March?$AA@ 0000000180021aa4     LIBCMT:nlsdata.obj
 0002:00002aac       ??_C@_05DMJDNLEJ@April?$AA@ 0000000180021aac     LIBCMT:nlsdata.obj
 0002:00002ab4       ??_C@_04CNLMGBGM@June?$AA@ 0000000180021ab4     LIBCMT:nlsdata.obj
 0002:00002abc       ??_C@_04MIEPOIFP@July?$AA@ 0000000180021abc     LIBCMT:nlsdata.obj
 0002:00002ac4       ??_C@_06LBBHFDDG@August?$AA@ 0000000180021ac4     LIBCMT:nlsdata.obj
 0002:00002ad0       ??_C@_09BHHEALKD@September?$AA@ 0000000180021ad0     LIBCMT:nlsdata.obj
 0002:00002ae0       ??_C@_07JJNFCEND@October?$AA@ 0000000180021ae0     LIBCMT:nlsdata.obj
 0002:00002ae8       ??_C@_08HCHEGEOA@November?$AA@ 0000000180021ae8     LIBCMT:nlsdata.obj
 0002:00002af8       ??_C@_08EDHMEBNP@December?$AA@ 0000000180021af8     LIBCMT:nlsdata.obj
 0002:00002b04       ??_C@_02DEDBPAFC@AM?$AA@   0000000180021b04     LIBCMT:nlsdata.obj
 0002:00002b08       ??_C@_02CJNFDJBF@PM?$AA@   0000000180021b08     LIBCMT:nlsdata.obj
 0002:00002b10       ??_C@_08BPBNCDIB@MM?1dd?1yy?$AA@ 0000000180021b10     LIBCMT:nlsdata.obj
 0002:00002b20       ??_C@_0BE@CKGJFCPC@dddd?0?5MMMM?5dd?0?5yyyy?$AA@ 0000000180021b20     LIBCMT:nlsdata.obj
 0002:00002b38       ??_C@_08JCCMCCIL@HH?3mm?3ss?$AA@ 0000000180021b38     LIBCMT:nlsdata.obj
 0002:00002b48       ??_C@_17MBGCMIPB@?$AAS?$AAu?$AAn?$AA?$AA@ 0000000180021b48     LIBCMT:nlsdata.obj
 0002:00002b50       ??_C@_17KBOMKBF@?$AAM?$AAo?$AAn?$AA?$AA@ 0000000180021b50     LIBCMT:nlsdata.obj
 0002:00002b58       ??_C@_17BMKGEGOJ@?$AAT?$AAu?$AAe?$AA?$AA@ 0000000180021b58     LIBCMT:nlsdata.obj
 0002:00002b60       ??_C@_17CJEDCEPE@?$AAW?$AAe?$AAd?$AA?$AA@ 0000000180021b60     LIBCMT:nlsdata.obj
 0002:00002b68       ??_C@_17PDPHAADD@?$AAT?$AAh?$AAu?$AA?$AA@ 0000000180021b68     LIBCMT:nlsdata.obj
 0002:00002b70       ??_C@_17HFOLPPLP@?$AAF?$AAr?$AAi?$AA?$AA@ 0000000180021b70     LIBCMT:nlsdata.obj
 0002:00002b78       ??_C@_17GGIBDPIH@?$AAS?$AAa?$AAt?$AA?$AA@ 0000000180021b78     LIBCMT:nlsdata.obj
 0002:00002b80       ??_C@_1O@IHNHDHPB@?$AAS?$AAu?$AAn?$AAd?$AAa?$AAy?$AA?$AA@ 0000000180021b80     LIBCMT:nlsdata.obj
 0002:00002b90       ??_C@_1O@MMNBFLIA@?$AAM?$AAo?$AAn?$AAd?$AAa?$AAy?$AA?$AA@ 0000000180021b90     LIBCMT:nlsdata.obj
 0002:00002ba0       ??_C@_1BA@ENFBFFEK@?$AAT?$AAu?$AAe?$AAs?$AAd?$AAa?$AAy?$AA?$AA@ 0000000180021ba0     LIBCMT:nlsdata.obj
 0002:00002bb0       ??_C@_1BE@EBOGMDOH@?$AAW?$AAe?$AAd?$AAn?$AAe?$AAs?$AAd?$AAa?$AAy?$AA?$AA@ 0000000180021bb0     LIBCMT:nlsdata.obj
 0002:00002bc8       ??_C@_1BC@HHMNLIHE@?$AAT?$AAh?$AAu?$AAr?$AAs?$AAd?$AAa?$AAy?$AA?$AA@ 0000000180021bc8     LIBCMT:nlsdata.obj
 0002:00002be0       ??_C@_1O@PDICJHAG@?$AAF?$AAr?$AAi?$AAd?$AAa?$AAy?$AA?$AA@ 0000000180021be0     LIBCMT:nlsdata.obj
 0002:00002bf0       ??_C@_1BC@ENMNNPAJ@?$AAS?$AAa?$AAt?$AAu?$AAr?$AAd?$AAa?$AAy?$AA?$AA@ 0000000180021bf0     LIBCMT:nlsdata.obj
 0002:00002c08       ??_C@_17DKNBKCHM@?$AAJ?$AAa?$AAn?$AA?$AA@ 0000000180021c08     LIBCMT:nlsdata.obj
 0002:00002c10       ??_C@_17LMDJEKJN@?$AAF?$AAe?$AAb?$AA?$AA@ 0000000180021c10     LIBCMT:nlsdata.obj
 0002:00002c18       ??_C@_17CKNLEDEC@?$AAM?$AAa?$AAr?$AA?$AA@ 0000000180021c18     LIBCMT:nlsdata.obj
 0002:00002c20       ??_C@_17LFPOIHDD@?$AAA?$AAp?$AAr?$AA?$AA@ 0000000180021c20     LIBCMT:nlsdata.obj
 0002:00002c28       ??_C@_17PNNKMEED@?$AAM?$AAa?$AAy?$AA?$AA@ 0000000180021c28     LIBCMT:nlsdata.obj
 0002:00002c30       ??_C@_17KCJGOCPB@?$AAJ?$AAu?$AAn?$AA?$AA@ 0000000180021c30     LIBCMT:nlsdata.obj
 0002:00002c38       ??_C@_17IJPCKHK@?$AAJ?$AAu?$AAl?$AA?$AA@ 0000000180021c38     LIBCMT:nlsdata.obj
 0002:00002c40       ??_C@_17ICPELBCN@?$AAA?$AAu?$AAg?$AA?$AA@ 0000000180021c40     LIBCMT:nlsdata.obj
 0002:00002c48       ??_C@_17HCHCOKMG@?$AAS?$AAe?$AAp?$AA?$AA@ 0000000180021c48     LIBCMT:nlsdata.obj
 0002:00002c50       ??_C@_17FNLKOI@?$AAO?$AAc?$AAt?$AA?$AA@ 0000000180021c50     LIBCMT:nlsdata.obj
 0002:00002c58       ??_C@_17BBDMLCIG@?$AAN?$AAo?$AAv?$AA?$AA@ 0000000180021c58     LIBCMT:nlsdata.obj
 0002:00002c60       ??_C@_17EGKACKIF@?$AAD?$AAe?$AAc?$AA?$AA@ 0000000180021c60     LIBCMT:nlsdata.obj
 0002:00002c68       ??_C@_1BA@EFMEIEBA@?$AAJ?$AAa?$AAn?$AAu?$AAa?$AAr?$AAy?$AA?$AA@ 0000000180021c68     LIBCMT:nlsdata.obj
 0002:00002c78       ??_C@_1BC@JGDDFFAM@?$AAF?$AAe?$AAb?$AAr?$AAu?$AAa?$AAr?$AAy?$AA?$AA@ 0000000180021c78     LIBCMT:nlsdata.obj
 0002:00002c90       ??_C@_1M@IKEENEDF@?$AAM?$AAa?$AAr?$AAc?$AAh?$AA?$AA@ 0000000180021c90     LIBCMT:nlsdata.obj
 0002:00002ca0       ??_C@_1M@GJNLMHFD@?$AAA?$AAp?$AAr?$AAi?$AAl?$AA?$AA@ 0000000180021ca0     LIBCMT:nlsdata.obj
 0002:00002cb0       ??_C@_19EPFLPGAP@?$AAJ?$AAu?$AAn?$AAe?$AA?$AA@ 0000000180021cb0     LIBCMT:nlsdata.obj
 0002:00002cc0       ??_C@_19BIFMLPCD@?$AAJ?$AAu?$AAl?$AAy?$AA?$AA@ 0000000180021cc0     LIBCMT:nlsdata.obj
 0002:00002cd0       ??_C@_1O@PAHLKOAC@?$AAA?$AAu?$AAg?$AAu?$AAs?$AAt?$AA?$AA@ 0000000180021cd0     LIBCMT:nlsdata.obj
 0002:00002ce0       ??_C@_1BE@DKAAMBJL@?$AAS?$AAe?$AAp?$AAt?$AAe?$AAm?$AAb?$AAe?$AAr?$AA?$AA@ 0000000180021ce0     LIBCMT:nlsdata.obj
 0002:00002cf8       ??_C@_1BA@EPANDLNG@?$AAO?$AAc?$AAt?$AAo?$AAb?$AAe?$AAr?$AA?$AA@ 0000000180021cf8     LIBCMT:nlsdata.obj
 0002:00002d08       ??_C@_1BC@BGLIFPF@?$AAN?$AAo?$AAv?$AAe?$AAm?$AAb?$AAe?$AAr?$AA?$AA@ 0000000180021d08     LIBCMT:nlsdata.obj
 0002:00002d20       ??_C@_1BC@FEMKIFH@?$AAD?$AAe?$AAc?$AAe?$AAm?$AAb?$AAe?$AAr?$AA?$AA@ 0000000180021d20     LIBCMT:nlsdata.obj
 0002:00002d34       ??_C@_15ODEHAHHF@?$AAA?$AAM?$AA?$AA@ 0000000180021d34     LIBCMT:nlsdata.obj
 0002:00002d3c       ??_C@_15CLMNNGEL@?$AAP?$AAM?$AA?$AA@ 0000000180021d3c     LIBCMT:nlsdata.obj
 0002:00002d48       ??_C@_1BC@IEBCMHCM@?$AAM?$AAM?$AA?1?$AAd?$AAd?$AA?1?$AAy?$AAy?$AA?$AA@ 0000000180021d48     LIBCMT:nlsdata.obj
 0002:00002d60       ??_C@_1CI@KNAKOEBC@?$AAd?$AAd?$AAd?$AAd?$AA?0?$AA?5?$AAM?$AAM?$AAM?$AAM?$AA?5?$AAd?$AAd?$AA?0?$AA?5?$AAy?$AAy?$AAy?$AAy?$AA?$AA@ 0000000180021d60     LIBCMT:nlsdata.obj
 0002:00002d88       ??_C@_1BC@GDGBMEMK@?$AAH?$AAH?$AA?3?$AAm?$AAm?$AA?3?$AAs?$AAs?$AA?$AA@ 0000000180021d88     LIBCMT:nlsdata.obj
 0002:00002da0       ??_C@_1M@BMHNFIME@?$AAe?$AAn?$AA?9?$AAU?$AAS?$AA?$AA@ 0000000180021da0     LIBCMT:nlsdata.obj
 0002:00002e30       _XcptActTab                0000000180021e30     LIBCMT:winxfltr.obj
 0002:00002ef0       _XcptActTabCount           0000000180021ef0     LIBCMT:winxfltr.obj
 0002:00002ef4       _XcptActTabSize            0000000180021ef4     LIBCMT:winxfltr.obj
 0002:00002ef8       _First_FPE_Indx            0000000180021ef8     LIBCMT:winxfltr.obj
 0002:00002efc       _Num_FPE                   0000000180021efc     LIBCMT:winxfltr.obj
 0002:00002f00       ??_C@_1BK@MGMFAEKH@?$AAk?$AAe?$AAr?$AAn?$AAe?$AAl?$AA3?$AA2?$AA?4?$AAd?$AAl?$AAl?$AA?$AA@ 0000000180021f00     LIBCMT:winapisupp.obj
 0002:00002f20       ??_C@_08KNHFBNJ@FlsAlloc?$AA@ 0000000180021f20     LIBCMT:winapisupp.obj
 0002:00002f30       ??_C@_07PEJMOBNF@FlsFree?$AA@ 0000000180021f30     LIBCMT:winapisupp.obj
 0002:00002f38       ??_C@_0M@GDNOONDI@FlsGetValue?$AA@ 0000000180021f38     LIBCMT:winapisupp.obj
 0002:00002f48       ??_C@_0M@JCPCPOEF@FlsSetValue?$AA@ 0000000180021f48     LIBCMT:winapisupp.obj
 0002:00002f58       ??_C@_0BM@HCFOFFN@InitializeCriticalSectionEx?$AA@ 0000000180021f58     LIBCMT:winapisupp.obj
 0002:00002f78       ??_C@_0P@DLHPPCNH@CreateEventExW?$AA@ 0000000180021f78     LIBCMT:winapisupp.obj
 0002:00002f88       ??_C@_0BD@KIEEOEEH@CreateSemaphoreExW?$AA@ 0000000180021f88     LIBCMT:winapisupp.obj
 0002:00002fa0       ??_C@_0BI@BKLFFAPO@SetThreadStackGuarantee?$AA@ 0000000180021fa0     LIBCMT:winapisupp.obj
 0002:00002fb8       ??_C@_0BG@OGFAJCKC@CreateThreadpoolTimer?$AA@ 0000000180021fb8     LIBCMT:winapisupp.obj
 0002:00002fd0       ??_C@_0BD@LPLEMMDI@SetThreadpoolTimer?$AA@ 0000000180021fd0     LIBCMT:winapisupp.obj
 0002:00002fe8       ??_C@_0CA@FMNJENH@WaitForThreadpoolTimerCallbacks?$AA@ 0000000180021fe8     LIBCMT:winapisupp.obj
 0002:00003008       ??_C@_0BF@DCFCCNOC@CloseThreadpoolTimer?$AA@ 0000000180022008     LIBCMT:winapisupp.obj
 0002:00003020       ??_C@_0BF@FLABGKKM@CreateThreadpoolWait?$AA@ 0000000180022020     LIBCMT:winapisupp.obj
 0002:00003038       ??_C@_0BC@MGCOHNA@SetThreadpoolWait?$AA@ 0000000180022038     LIBCMT:winapisupp.obj
 0002:00003050       ??_C@_0BE@OCIOMIMP@CloseThreadpoolWait?$AA@ 0000000180022050     LIBCMT:winapisupp.obj
 0002:00003068       ??_C@_0BJ@LKGHFHBO@FlushProcessWriteBuffers?$AA@ 0000000180022068     LIBCMT:winapisupp.obj
 0002:00003088       ??_C@_0BP@KALKKPMO@FreeLibraryWhenCallbackReturns?$AA@ 0000000180022088     LIBCMT:winapisupp.obj
 0002:000030a8       ??_C@_0BK@DFNBACLA@GetCurrentProcessorNumber?$AA@ 00000001800220a8     LIBCMT:winapisupp.obj
 0002:000030c8       ??_C@_0BP@KHGALBC@GetLogicalProcessorInformation?$AA@ 00000001800220c8     LIBCMT:winapisupp.obj
 0002:000030e8       ??_C@_0BE@FKKLLFLM@CreateSymbolicLinkW?$AA@ 00000001800220e8     LIBCMT:winapisupp.obj
 0002:00003100       ??_C@_0BJ@OHNKDLIJ@SetDefaultDllDirectories?$AA@ 0000000180022100     LIBCMT:winapisupp.obj
 0002:00003120       ??_C@_0BE@LJANKFHF@EnumSystemLocalesEx?$AA@ 0000000180022120     LIBCMT:winapisupp.obj
 0002:00003138       ??_C@_0BA@IHGNDAEB@CompareStringEx?$AA@ 0000000180022138     LIBCMT:winapisupp.obj
 0002:00003148       ??_C@_0BA@EPCJIIPD@GetDateFormatEx?$AA@ 0000000180022148     LIBCMT:winapisupp.obj
 0002:00003158       ??_C@_0BA@ONOKGCMP@GetLocaleInfoEx?$AA@ 0000000180022158     LIBCMT:winapisupp.obj
 0002:00003168       ??_C@_0BA@CIJJKCJJ@GetTimeFormatEx?$AA@ 0000000180022168     LIBCMT:winapisupp.obj
 0002:00003178       ??_C@_0BJ@PBCCBIPI@GetUserDefaultLocaleName?$AA@ 0000000180022178     LIBCMT:winapisupp.obj
 0002:00003198       ??_C@_0BC@CELBKLLA@IsValidLocaleName?$AA@ 0000000180022198     LIBCMT:winapisupp.obj
 0002:000031b0       ??_C@_0O@KKBNKAPF@LCMapStringEx?$AA@ 00000001800221b0     LIBCMT:winapisupp.obj
 0002:000031c0       ??_C@_0BE@JOGNEJCI@GetCurrentPackageId?$AA@ 00000001800221c0     LIBCMT:winapisupp.obj
 0002:000031d8       ??_C@_0P@CDHHOHKP@GetTickCount64?$AA@ 00000001800221d8     LIBCMT:winapisupp.obj
 0002:000031e8       ??_C@_0BO@KPCLFDJJ@GetFileInformationByHandleExW?$AA@ 00000001800221e8     LIBCMT:winapisupp.obj
 0002:00003208       ??_C@_0BM@MHIDLABK@SetFileInformationByHandleW?$AA@ 0000000180022208     LIBCMT:winapisupp.obj
 0002:00003228       _pDestructExceptionObject  0000000180022228     LIBCMT:frame.obj
 0002:00003238       ??_7bad_exception@std@@6B@ 0000000180022238     LIBCMT:frame.obj
 0002:00003248       ??_C@_0O@DPKOEFFH@bad?5exception?$AA@ 0000000180022248     LIBCMT:frame.obj
 0002:00003258       ??_C@_05KLBDPFGC@e?$CL000?$AA@ 0000000180022258     LIBCMT:cvt.obj
 0002:00003260       __real@0000000000000000    0000000180022260     LIBCMT:cvt.obj
 0002:00003270       LcidToLocaleNameTable      0000000180022270     LIBCMT:winapinls.obj
 0002:000040b0       LocaleNameToIndexTable     00000001800230b0     LIBCMT:winapinls.obj
 0002:00004ef0       ??_C@_15EMKDOKLE@?$AAa?$AAr?$AA?$AA@ 0000000180023ef0     LIBCMT:winapinls.obj
 0002:00004ef8       ??_C@_15KNPADPLH@?$AAb?$AAg?$AA?$AA@ 0000000180023ef8     LIBCMT:winapinls.obj
 0002:00004f00       ??_C@_15EDMHLDMO@?$AAc?$AAa?$AA?$AA@ 0000000180023f00     LIBCMT:winapinls.obj
 0002:00004f08       ??_C@_1O@BPEAJADD@?$AAz?$AAh?$AA?9?$AAC?$AAH?$AAS?$AA?$AA@ 0000000180023f08     LIBCMT:winapinls.obj
 0002:00004f18       ??_C@_15LJNHCMNK@?$AAc?$AAs?$AA?$AA@ 0000000180023f18     LIBCMT:winapinls.obj
 0002:00004f20       ??_C@_15FOMCIDHG@?$AAd?$AAa?$AA?$AA@ 0000000180023f20     LIBCMT:winapinls.obj
 0002:00004f28       ??_C@_15NBKABECB@?$AAd?$AAe?$AA?$AA@ 0000000180023f28     LIBCMT:winapinls.obj
 0002:00004f30       ??_C@_15GHPEIIAO@?$AAe?$AAl?$AA?$AA@ 0000000180023f30     LIBCMT:winapinls.obj
 0002:00004f38       ??_C@_15MNPNEAIF@?$AAe?$AAn?$AA?$AA@ 0000000180023f38     LIBCMT:winapinls.obj
 0002:00004f40       ??_C@_15GPIOMPMH@?$AAe?$AAs?$AA?$AA@ 0000000180023f40     LIBCMT:winapinls.obj
 0002:00004f48       ??_C@_15NGLOAKJC@?$AAf?$AAi?$AA?$AA@ 0000000180023f48     LIBCMT:winapinls.obj
 0002:00004f50       ??_C@_15FBKGNKAM@?$AAf?$AAr?$AA?$AA@ 0000000180023f50     LIBCMT:winapinls.obj
 0002:00004f58       ??_C@_15KGGCNEFK@?$AAh?$AAe?$AA?$AA@ 0000000180023f58     LIBCMT:winapinls.obj
 0002:00004f60       ??_C@_15PGHLIDMF@?$AAh?$AAu?$AA?$AA@ 0000000180023f60     LIBCMT:winapinls.obj
 0002:00004f68       ??_C@_15BIEMAPLM@?$AAi?$AAs?$AA?$AA@ 0000000180023f68     LIBCMT:winapinls.obj
 0002:00004f70       ??_C@_15IFJLDHAF@?$AAi?$AAt?$AA?$AA@ 0000000180023f70     LIBCMT:winapinls.obj
 0002:00004f78       ??_C@_15GEMIOCAG@?$AAj?$AAa?$AA?$AA@ 0000000180023f78     LIBCMT:winapinls.obj
 0002:00004f80       ??_C@_15EPELEGJA@?$AAk?$AAo?$AA?$AA@ 0000000180023f80     LIBCMT:winapinls.obj
 0002:00004f88       ??_C@_15NDDHIMN@?$AAn?$AAl?$AA?$AA@ 0000000180023f88     LIBCMT:winapinls.obj
 0002:00004f90       ??_C@_15BPIGNHCD@?$AAn?$AAo?$AA?$AA@ 0000000180023f90     LIBCMT:winapinls.obj
 0002:00004f98       ??_C@_15DEOPBLCG@?$AAp?$AAl?$AA?$AA@ 0000000180023f98     LIBCMT:winapinls.obj
 0002:00004fa0       ??_C@_15KBECGEFG@?$AAp?$AAt?$AA?$AA@ 0000000180023fa0     LIBCMT:winapinls.obj
 0002:00004fa8       ??_C@_15GLJCBFMD@?$AAr?$AAo?$AA?$AA@ 0000000180023fa8     LIBCMT:winapinls.obj
 0002:00004fb0       ??_C@_15FEDGKCDI@?$AAr?$AAu?$AA?$AA@ 0000000180023fb0     LIBCMT:winapinls.obj
 0002:00004fb8       ??_C@_15GLKMLLHM@?$AAh?$AAr?$AA?$AA@ 0000000180023fb8     LIBCMT:winapinls.obj
 0002:00004fc0       ??_C@_15CPKMFBDB@?$AAs?$AAk?$AA?$AA@ 0000000180023fc0     LIBCMT:winapinls.obj
 0002:00004fc8       ??_C@_15BAAIOGMK@?$AAs?$AAq?$AA?$AA@ 0000000180023fc8     LIBCMT:winapinls.obj
 0002:00004fd0       ??_C@_15INNPNOHD@?$AAs?$AAv?$AA?$AA@ 0000000180023fd0     LIBCMT:winapinls.obj
 0002:00004fd8       ??_C@_15CABMMOGH@?$AAt?$AAh?$AA?$AA@ 0000000180023fd8     LIBCMT:winapinls.obj
 0002:00004fe0       ??_C@_15BPLIHJJM@?$AAt?$AAr?$AA?$AA@ 0000000180023fe0     LIBCMT:winapinls.obj
 0002:00004fe8       ??_C@_15NEOEKKDJ@?$AAu?$AAr?$AA?$AA@ 0000000180023fe8     LIBCMT:winapinls.obj
 0002:00004ff0       ??_C@_15NFICGAJK@?$AAi?$AAd?$AA?$AA@ 0000000180023ff0     LIBCMT:winapinls.obj
 0002:00004ff8       ??_C@_15PJPFLCCM@?$AAu?$AAk?$AA?$AA@ 0000000180023ff8     LIBCMT:winapinls.obj
 0002:00005000       ??_C@_15HPJPHDM@?$AAb?$AAe?$AA?$AA@ 0000000180024000     LIBCMT:winapinls.obj
 0002:00005008       ??_C@_15LCHLGJII@?$AAs?$AAl?$AA?$AA@ 0000000180024008     LIBCMT:winapinls.obj
 0002:00005010       ??_C@_15PCFJPHHO@?$AAe?$AAt?$AA?$AA@ 0000000180024010     LIBCMT:winapinls.obj
 0002:00005018       ??_C@_15HPFPGODN@?$AAl?$AAv?$AA?$AA@ 0000000180024018     LIBCMT:winapinls.obj
 0002:00005020       ??_C@_15NFFGKGLG@?$AAl?$AAt?$AA?$AA@ 0000000180024020     LIBCMT:winapinls.obj
 0002:00005028       ??_C@_15BDAKCCHN@?$AAf?$AAa?$AA?$AA@ 0000000180024028     LIBCMT:winapinls.obj
 0002:00005030       ??_C@_15NFGIAIAJ@?$AAv?$AAi?$AA?$AA@ 0000000180024030     LIBCMT:winapinls.obj
 0002:00005038       ??_C@_15LMKNDMHN@?$AAh?$AAy?$AA?$AA@ 0000000180024038     LIBCMT:winapinls.obj
 0002:00005040       ??_C@_15IJBHMCFL@?$AAa?$AAz?$AA?$AA@ 0000000180024040     LIBCMT:winapinls.obj
 0002:00005048       ??_C@_15EKOFJABL@?$AAe?$AAu?$AA?$AA@ 0000000180024048     LIBCMT:winapinls.obj
 0002:00005050       ??_C@_15BGHADCNK@?$AAm?$AAk?$AA?$AA@ 0000000180024050     LIBCMT:winapinls.obj
 0002:00005058       ??_C@_15JDNICKHM@?$AAa?$AAf?$AA?$AA@ 0000000180024058     LIBCMT:winapinls.obj
 0002:00005060       ??_C@_15KPJEDBKD@?$AAk?$AAa?$AA?$AA@ 0000000180024060     LIBCMT:winapinls.obj
 0002:00005068       ??_C@_15PDNFFFEO@?$AAf?$AAo?$AA?$AA@ 0000000180024068     LIBCMT:winapinls.obj
 0002:00005070       ??_C@_15OMLEGLOC@?$AAh?$AAi?$AA?$AA@ 0000000180024070     LIBCMT:winapinls.obj
 0002:00005078       ??_C@_15IDNNENKK@?$AAm?$AAs?$AA?$AA@ 0000000180024078     LIBCMT:winapinls.obj
 0002:00005080       ??_C@_15MACJNBMH@?$AAk?$AAk?$AA?$AA@ 0000000180024080     LIBCMT:winapinls.obj
 0002:00005088       ??_C@_15DKDJEOND@?$AAk?$AAy?$AA?$AA@ 0000000180024088     LIBCMT:winapinls.obj
 0002:00005090       ??_C@_15DFGDLJBG@?$AAs?$AAw?$AA?$AA@ 0000000180024090     LIBCMT:winapinls.obj
 0002:00005098       ??_C@_15BBFAICNG@?$AAu?$AAz?$AA?$AA@ 0000000180024098     LIBCMT:winapinls.obj
 0002:000050a0       ??_C@_15DKNDCGEA@?$AAt?$AAt?$AA?$AA@ 00000001800240a0     LIBCMT:winapinls.obj
 0002:000050a8       ??_C@_15MGIFMDPL@?$AAp?$AAa?$AA?$AA@ 00000001800240a8     LIBCMT:winapinls.obj
 0002:000050b0       ??_C@_15HCNDBBA@?$AAg?$AAu?$AA?$AA@ 00000001800240b0     LIBCMT:winapinls.obj
 0002:000050b8       ??_C@_15FNBEIBON@?$AAt?$AAa?$AA?$AA@ 00000001800240b8     LIBCMT:winapinls.obj
 0002:000050c0       ??_C@_15NCHGBGLK@?$AAt?$AAe?$AA?$AA@ 00000001800240c0     LIBCMT:winapinls.obj
 0002:000050c8       ??_C@_15PHPHCBPF@?$AAk?$AAn?$AA?$AA@ 00000001800240c8     LIBCMT:winapinls.obj
 0002:000050d0       ??_C@_15DLGBCKMP@?$AAm?$AAr?$AA?$AA@ 00000001800240d0     LIBCMT:winapinls.obj
 0002:000050d8       ??_C@_15EABBLBFF@?$AAs?$AAa?$AA?$AA@ 00000001800240d8     LIBCMT:winapinls.obj
 0002:000050e0       ??_C@_15CBKOMCOI@?$AAm?$AAn?$AA?$AA@ 00000001800240e0     LIBCMT:winapinls.obj
 0002:000050e8       ??_C@_15CKDMCJAF@?$AAg?$AAl?$AA?$AA@ 00000001800240e8     LIBCMT:winapinls.obj
 0002:000050f0       ??_C@_17CNJFBPG@?$AAk?$AAo?$AAk?$AA?$AA@ 00000001800240f0     LIBCMT:winapinls.obj
 0002:000050f8       ??_C@_17FFBJICPL@?$AAs?$AAy?$AAr?$AA?$AA@ 00000001800240f8     LIBCMT:winapinls.obj
 0002:00005100       ??_C@_17KPNDCPAF@?$AAd?$AAi?$AAv?$AA?$AA@ 0000000180024100     LIBCMT:winapinls.obj
 0002:00005108       ??_C@_11LOCGONAA@?$AA?$AA@ 0000000180024108     LIBCMT:winapinls.obj
 0002:00005110       ??_C@_1M@OKAHONE@?$AAa?$AAr?$AA?9?$AAS?$AAA?$AA?$AA@ 0000000180024110     LIBCMT:winapinls.obj
 0002:00005120       ??_C@_1M@FFFIGIGK@?$AAb?$AAg?$AA?9?$AAB?$AAG?$AA?$AA@ 0000000180024120     LIBCMT:winapinls.obj
 0002:00005130       ??_C@_1M@BJNKEDC@?$AAc?$AAa?$AA?9?$AAE?$AAS?$AA?$AA@ 0000000180024130     LIBCMT:winapinls.obj
 0002:00005140       ??_C@_1M@IJJHFJHA@?$AAc?$AAs?$AA?9?$AAC?$AAZ?$AA?$AA@ 0000000180024140     LIBCMT:winapinls.obj
 0002:00005150       ??_C@_1M@CLPEOBGI@?$AAd?$AAa?$AA?9?$AAD?$AAK?$AA?$AA@ 0000000180024150     LIBCMT:winapinls.obj
 0002:00005160       ??_C@_1M@MCMADGCB@?$AAd?$AAe?$AA?9?$AAD?$AAE?$AA?$AA@ 0000000180024160     LIBCMT:winapinls.obj
 0002:00005170       ??_C@_1M@OOCKEMAM@?$AAe?$AAl?$AA?9?$AAG?$AAR?$AA?$AA@ 0000000180024170     LIBCMT:winapinls.obj
 0002:00005180       ??_C@_1M@DDNJFGID@?$AAf?$AAi?$AA?9?$AAF?$AAI?$AA?$AA@ 0000000180024180     LIBCMT:winapinls.obj
 0002:00005190       ??_C@_1M@GLIPPMAC@?$AAf?$AAr?$AA?9?$AAF?$AAR?$AA?$AA@ 0000000180024190     LIBCMT:winapinls.obj
 0002:000051a0       ??_C@_1M@GFMCHPE@?$AAh?$AAe?$AA?9?$AAI?$AAL?$AA?$AA@ 00000001800241a0     LIBCMT:winapinls.obj
 0002:000051b0       ??_C@_1M@MHLPGNKM@?$AAh?$AAu?$AA?9?$AAH?$AAU?$AA?$AA@ 00000001800241b0     LIBCMT:winapinls.obj
 0002:000051c0       ??_C@_1M@LPDDNNPN@?$AAi?$AAs?$AA?9?$AAI?$AAS?$AA?$AA@ 00000001800241c0     LIBCMT:winapinls.obj
 0002:000051d0       ??_C@_1M@MADIPODN@?$AAi?$AAt?$AA?9?$AAI?$AAT?$AA?$AA@ 00000001800241d0     LIBCMT:winapinls.obj
 0002:000051e0       ??_C@_1M@IHBJJGG@?$AAn?$AAl?$AA?9?$AAN?$AAL?$AA?$AA@ 00000001800241e0     LIBCMT:winapinls.obj
 0002:000051f0       ??_C@_1M@EANAGDL@?$AAn?$AAb?$AA?9?$AAN?$AAO?$AA?$AA@ 00000001800241f0     LIBCMT:winapinls.obj
 0002:00005200       ??_C@_1M@NEIEMEGP@?$AAp?$AAl?$AA?9?$AAP?$AAL?$AA?$AA@ 0000000180024200     LIBCMT:winapinls.obj
 0002:00005210       ??_C@_1M@BOCFIGEP@?$AAp?$AAt?$AA?9?$AAB?$AAR?$AA?$AA@ 0000000180024210     LIBCMT:winapinls.obj
 0002:00005220       ??_C@_1M@IMPFOPBG@?$AAr?$AAo?$AA?9?$AAR?$AAO?$AA?$AA@ 0000000180024220     LIBCMT:winapinls.obj
 0002:00005230       ??_C@_1M@IDNNEJMM@?$AAr?$AAu?$AA?9?$AAR?$AAU?$AA?$AA@ 0000000180024230     LIBCMT:winapinls.obj
 0002:00005240       ??_C@_1M@LILEEOGM@?$AAh?$AAr?$AA?9?$AAH?$AAR?$AA?$AA@ 0000000180024240     LIBCMT:winapinls.obj
 0002:00005250       ??_C@_1M@FKIFEHPB@?$AAs?$AAk?$AA?9?$AAS?$AAK?$AA?$AA@ 0000000180024250     LIBCMT:winapinls.obj
 0002:00005260       ??_C@_1M@LJMAMNPJ@?$AAs?$AAq?$AA?9?$AAA?$AAL?$AA?$AA@ 0000000180024260     LIBCMT:winapinls.obj
 0002:00005270       ??_C@_1M@GIAKDKJK@?$AAs?$AAv?$AA?9?$AAS?$AAE?$AA?$AA@ 0000000180024270     LIBCMT:winapinls.obj
 0002:00005280       ??_C@_1M@MKJKIKCL@?$AAt?$AAh?$AA?9?$AAT?$AAH?$AA?$AA@ 0000000180024280     LIBCMT:winapinls.obj
 0002:00005290       ??_C@_1M@MFLCCMPB@?$AAt?$AAr?$AA?9?$AAT?$AAR?$AA?$AA@ 0000000180024290     LIBCMT:winapinls.obj
 0002:000052a0       ??_C@_1M@OIJHDKJN@?$AAu?$AAr?$AA?9?$AAP?$AAK?$AA?$AA@ 00000001800242a0     LIBCMT:winapinls.obj
 0002:000052b0       ??_C@_1M@LHIPCIEK@?$AAi?$AAd?$AA?9?$AAI?$AAD?$AA?$AA@ 00000001800242b0     LIBCMT:winapinls.obj
 0002:000052c0       ??_C@_1M@MFMOBGI@?$AAu?$AAk?$AA?9?$AAU?$AAA?$AA?$AA@ 00000001800242c0     LIBCMT:winapinls.obj
 0002:000052d0       ??_C@_1M@OBGLJIPL@?$AAb?$AAe?$AA?9?$AAB?$AAY?$AA?$AA@ 00000001800242d0     LIBCMT:winapinls.obj
 0002:000052e0       ??_C@_1M@BCFAJEAD@?$AAs?$AAl?$AA?9?$AAS?$AAI?$AA?$AA@ 00000001800242e0     LIBCMT:winapinls.obj
 0002:000052f0       ??_C@_1M@FKFFEDDN@?$AAe?$AAt?$AA?9?$AAE?$AAE?$AA?$AA@ 00000001800242f0     LIBCMT:winapinls.obj
 0002:00005300       ??_C@_1M@KGKKAACI@?$AAl?$AAv?$AA?9?$AAL?$AAV?$AA?$AA@ 0000000180024300     LIBCMT:winapinls.obj
 0002:00005310       ??_C@_1M@IFGBIJO@?$AAl?$AAt?$AA?9?$AAL?$AAT?$AA?$AA@ 0000000180024310     LIBCMT:winapinls.obj
 0002:00005320       ??_C@_1M@FGEAHEDM@?$AAf?$AAa?$AA?9?$AAI?$AAR?$AA?$AA@ 0000000180024320     LIBCMT:winapinls.obj
 0002:00005330       ??_C@_1M@KBMAIBFN@?$AAv?$AAi?$AA?9?$AAV?$AAN?$AA?$AA@ 0000000180024330     LIBCMT:winapinls.obj
 0002:00005340       ??_C@_1M@GPCBKDJK@?$AAh?$AAy?$AA?9?$AAA?$AAM?$AA?$AA@ 0000000180024340     LIBCMT:winapinls.obj
 0002:00005350       ??_C@_1BG@BECMDDJB@?$AAa?$AAz?$AA?9?$AAA?$AAZ?$AA?9?$AAL?$AAa?$AAt?$AAn?$AA?$AA@ 0000000180024350     LIBCMT:winapinls.obj
 0002:00005368       ??_C@_1M@MAOFCAEA@?$AAe?$AAu?$AA?9?$AAE?$AAS?$AA?$AA@ 0000000180024368     LIBCMT:winapinls.obj
 0002:00005378       ??_C@_1M@IGHABKPI@?$AAm?$AAk?$AA?9?$AAM?$AAK?$AA?$AA@ 0000000180024378     LIBCMT:winapinls.obj
 0002:00005388       ??_C@_1M@IAIGNEJG@?$AAt?$AAn?$AA?9?$AAZ?$AAA?$AA?$AA@ 0000000180024388     LIBCMT:winapinls.obj
 0002:00005398       ??_C@_1M@IIJCOJFA@?$AAx?$AAh?$AA?9?$AAZ?$AAA?$AA?$AA@ 0000000180024398     LIBCMT:winapinls.obj
 0002:000053a8       ??_C@_1M@LGPJHNJH@?$AAz?$AAu?$AA?9?$AAZ?$AAA?$AA?$AA@ 00000001800243a8     LIBCMT:winapinls.obj
 0002:000053b8       ??_C@_1M@HOKAOIO@?$AAa?$AAf?$AA?9?$AAZ?$AAA?$AA?$AA@ 00000001800243b8     LIBCMT:winapinls.obj
 0002:000053c8       ??_C@_1M@DPCLHLIE@?$AAk?$AAa?$AA?9?$AAG?$AAE?$AA?$AA@ 00000001800243c8     LIBCMT:winapinls.obj
 0002:000053d8       ??_C@_1M@BLKMHJBI@?$AAf?$AAo?$AA?9?$AAF?$AAO?$AA?$AA@ 00000001800243d8     LIBCMT:winapinls.obj
 0002:000053e8       ??_C@_1M@LGGJAPPB@?$AAh?$AAi?$AA?9?$AAI?$AAN?$AA?$AA@ 00000001800243e8     LIBCMT:winapinls.obj
 0002:000053f8       ??_C@_1M@FIKPIHFE@?$AAm?$AAt?$AA?9?$AAM?$AAT?$AA?$AA@ 00000001800243f8     LIBCMT:winapinls.obj
 0002:00005408       ??_C@_1M@HEGGPBFA@?$AAs?$AAe?$AA?9?$AAN?$AAO?$AA?$AA@ 0000000180024408     LIBCMT:winapinls.obj
 0002:00005418       ??_C@_1M@EIBJEEPA@?$AAm?$AAs?$AA?9?$AAM?$AAY?$AA?$AA@ 0000000180024418     LIBCMT:winapinls.obj
 0002:00005428       ??_C@_1M@FHLBGMPP@?$AAk?$AAk?$AA?9?$AAK?$AAZ?$AA?$AA@ 0000000180024428     LIBCMT:winapinls.obj
 0002:00005438       ??_C@_1M@NGJJLCGI@?$AAk?$AAy?$AA?9?$AAK?$AAG?$AA?$AA@ 0000000180024438     LIBCMT:winapinls.obj
 0002:00005448       ??_C@_1M@GIENNBFC@?$AAs?$AAw?$AA?9?$AAK?$AAE?$AA?$AA@ 0000000180024448     LIBCMT:winapinls.obj
 0002:00005458       ??_C@_1BG@NDGMJIMJ@?$AAu?$AAz?$AA?9?$AAU?$AAZ?$AA?9?$AAL?$AAa?$AAt?$AAn?$AA?$AA@ 0000000180024458     LIBCMT:winapinls.obj
 0002:00005470       ??_C@_1M@IDCCIHBC@?$AAt?$AAt?$AA?9?$AAR?$AAU?$AA?$AA@ 0000000180024470     LIBCMT:winapinls.obj
 0002:00005480       ??_C@_1M@LOICPMOJ@?$AAb?$AAn?$AA?9?$AAI?$AAN?$AA?$AA@ 0000000180024480     LIBCMT:winapinls.obj
 0002:00005490       ??_C@_1M@KPKKNEAH@?$AAp?$AAa?$AA?9?$AAI?$AAN?$AA?$AA@ 0000000180024490     LIBCMT:winapinls.obj
 0002:000054a0       ??_C@_1M@PJGPPBOG@?$AAg?$AAu?$AA?9?$AAI?$AAN?$AA?$AA@ 00000001800244a0     LIBCMT:winapinls.obj
 0002:000054b0       ??_C@_1M@KMKMOPHI@?$AAt?$AAa?$AA?9?$AAI?$AAN?$AA?$AA@ 00000001800244b0     LIBCMT:winapinls.obj
 0002:000054c0       ??_C@_1M@KFEHEPAC@?$AAt?$AAe?$AA?9?$AAI?$AAN?$AA?$AA@ 00000001800244c0     LIBCMT:winapinls.obj
 0002:000054d0       ??_C@_1M@CDCLMGHI@?$AAk?$AAn?$AA?9?$AAI?$AAN?$AA?$AA@ 00000001800244d0     LIBCMT:winapinls.obj
 0002:000054e0       ??_C@_1M@MIODLDKF@?$AAm?$AAl?$AA?9?$AAI?$AAN?$AA?$AA@ 00000001800244e0     LIBCMT:winapinls.obj
 0002:000054f0       ??_C@_1M@PBIEACPO@?$AAm?$AAr?$AA?9?$AAI?$AAN?$AA?$AA@ 00000001800244f0     LIBCMT:winapinls.obj
 0002:00005500       ??_C@_1M@NIDEAGPH@?$AAs?$AAa?$AA?9?$AAI?$AAN?$AA?$AA@ 0000000180024500     LIBCMT:winapinls.obj
 0002:00005510       ??_C@_1M@FHIHCBIO@?$AAm?$AAn?$AA?9?$AAM?$AAN?$AA?$AA@ 0000000180024510     LIBCMT:winapinls.obj
 0002:00005520       ??_C@_1M@JAIJPENP@?$AAc?$AAy?$AA?9?$AAG?$AAB?$AA?$AA@ 0000000180024520     LIBCMT:winapinls.obj
 0002:00005530       ??_C@_1M@PHGFBEPN@?$AAg?$AAl?$AA?9?$AAE?$AAS?$AA?$AA@ 0000000180024530     LIBCMT:winapinls.obj
 0002:00005540       ??_C@_1O@KPIPDNCP@?$AAk?$AAo?$AAk?$AA?9?$AAI?$AAN?$AA?$AA@ 0000000180024540     LIBCMT:winapinls.obj
 0002:00005550       ??_C@_1O@KNHJLDJA@?$AAs?$AAy?$AAr?$AA?9?$AAS?$AAY?$AA?$AA@ 0000000180024550     LIBCMT:winapinls.obj
 0002:00005560       ??_C@_1O@MKEKBLAH@?$AAd?$AAi?$AAv?$AA?9?$AAM?$AAV?$AA?$AA@ 0000000180024560     LIBCMT:winapinls.obj
 0002:00005570       ??_C@_1O@OHDCKDDF@?$AAq?$AAu?$AAz?$AA?9?$AAB?$AAO?$AA?$AA@ 0000000180024570     LIBCMT:winapinls.obj
 0002:00005580       ??_C@_1M@LEPJNLFD@?$AAn?$AAs?$AA?9?$AAZ?$AAA?$AA?$AA@ 0000000180024580     LIBCMT:winapinls.obj
 0002:00005590       ??_C@_1M@OMLEIIJB@?$AAm?$AAi?$AA?9?$AAN?$AAZ?$AA?$AA@ 0000000180024590     LIBCMT:winapinls.obj
 0002:000055a0       ??_C@_1M@PMPEAILG@?$AAa?$AAr?$AA?9?$AAI?$AAQ?$AA?$AA@ 00000001800245a0     LIBCMT:winapinls.obj
 0002:000055b0       ??_C@_1M@CNKPNOEE@?$AAd?$AAe?$AA?9?$AAC?$AAH?$AA?$AA@ 00000001800245b0     LIBCMT:winapinls.obj
 0002:000055c0       ??_C@_1M@LKMGMLKO@?$AAe?$AAn?$AA?9?$AAG?$AAB?$AA?$AA@ 00000001800245c0     LIBCMT:winapinls.obj
 0002:000055d0       ??_C@_1M@PGKJFFGL@?$AAe?$AAs?$AA?9?$AAM?$AAX?$AA?$AA@ 00000001800245d0     LIBCMT:winapinls.obj
 0002:000055e0       ??_C@_1M@DNNANBDC@?$AAf?$AAr?$AA?9?$AAB?$AAE?$AA?$AA@ 00000001800245e0     LIBCMT:winapinls.obj
 0002:000055f0       ??_C@_1M@HLGMDFHM@?$AAi?$AAt?$AA?9?$AAC?$AAH?$AA?$AA@ 00000001800245f0     LIBCMT:winapinls.obj
 0002:00005600       ??_C@_1M@CLLBGJH@?$AAn?$AAl?$AA?9?$AAB?$AAE?$AA?$AA@ 0000000180024600     LIBCMT:winapinls.obj
 0002:00005610       ??_C@_1M@BODBOGLF@?$AAn?$AAn?$AA?9?$AAN?$AAO?$AA?$AA@ 0000000180024610     LIBCMT:winapinls.obj
 0002:00005620       ??_C@_1M@HFFAHKAD@?$AAp?$AAt?$AA?9?$AAP?$AAT?$AA?$AA@ 0000000180024620     LIBCMT:winapinls.obj
 0002:00005630       ??_C@_1BG@LNOAKHIE@?$AAs?$AAr?$AA?9?$AAS?$AAP?$AA?9?$AAL?$AAa?$AAt?$AAn?$AA?$AA@ 0000000180024630     LIBCMT:winapinls.obj
 0002:00005648       ??_C@_1M@HBMHBGAK@?$AAs?$AAv?$AA?9?$AAF?$AAI?$AA?$AA@ 0000000180024648     LIBCMT:winapinls.obj
 0002:00005658       ??_C@_1BG@DGCJGJBE@?$AAa?$AAz?$AA?9?$AAA?$AAZ?$AA?9?$AAC?$AAy?$AAr?$AAl?$AA?$AA@ 0000000180024658     LIBCMT:winapinls.obj
 0002:00005670       ??_C@_1M@KEJDAAHB@?$AAs?$AAe?$AA?9?$AAS?$AAE?$AA?$AA@ 0000000180024670     LIBCMT:winapinls.obj
 0002:00005680       ??_C@_1M@HEIBJJAD@?$AAm?$AAs?$AA?9?$AAB?$AAN?$AA?$AA@ 0000000180024680     LIBCMT:winapinls.obj
 0002:00005690       ??_C@_1BG@PBGJMCEM@?$AAu?$AAz?$AA?9?$AAU?$AAZ?$AA?9?$AAC?$AAy?$AAr?$AAl?$AA?$AA@ 0000000180024690     LIBCMT:winapinls.obj
 0002:000056a8       ??_C@_1O@LAOBCMDF@?$AAq?$AAu?$AAz?$AA?9?$AAE?$AAC?$AA?$AA@ 00000001800246a8     LIBCMT:winapinls.obj
 0002:000056b8       ??_C@_1M@POEEMAIO@?$AAa?$AAr?$AA?9?$AAE?$AAG?$AA?$AA@ 00000001800246b8     LIBCMT:winapinls.obj
 0002:000056c8       ??_C@_1M@EFAKDEDL@?$AAz?$AAh?$AA?9?$AAH?$AAK?$AA?$AA@ 00000001800246c8     LIBCMT:winapinls.obj
 0002:000056d8       ??_C@_1M@HKKIJHGI@?$AAd?$AAe?$AA?9?$AAA?$AAT?$AA?$AA@ 00000001800246d8     LIBCMT:winapinls.obj
 0002:000056e8       ??_C@_1M@KBFBEHJF@?$AAe?$AAn?$AA?9?$AAA?$AAU?$AA?$AA@ 00000001800246e8     LIBCMT:winapinls.obj
 0002:000056f8       ??_C@_1M@MNPLFAAH@?$AAe?$AAs?$AA?9?$AAE?$AAS?$AA?$AA@ 00000001800246f8     LIBCMT:winapinls.obj
 0002:00005708       ??_C@_1M@HJOOJFMA@?$AAf?$AAr?$AA?9?$AAC?$AAA?$AA?$AA@ 0000000180024708     LIBCMT:winapinls.obj
 0002:00005718       ??_C@_1BG@JPOFPNAB@?$AAs?$AAr?$AA?9?$AAS?$AAP?$AA?9?$AAC?$AAy?$AAr?$AAl?$AA?$AA@ 0000000180024718     LIBCMT:winapinls.obj
 0002:00005730       ??_C@_1M@LNFOCMOB@?$AAs?$AAe?$AA?9?$AAF?$AAI?$AA?$AA@ 0000000180024730     LIBCMT:winapinls.obj
 0002:00005740       ??_C@_1O@MGJBOAMB@?$AAq?$AAu?$AAz?$AA?9?$AAP?$AAE?$AA?$AA@ 0000000180024740     LIBCMT:winapinls.obj
 0002:00005750       ??_C@_1M@GJINLBOK@?$AAa?$AAr?$AA?9?$AAL?$AAY?$AA?$AA@ 0000000180024750     LIBCMT:winapinls.obj
 0002:00005760       ??_C@_1M@GGMNHJNL@?$AAz?$AAh?$AA?9?$AAS?$AAG?$AA?$AA@ 0000000180024760     LIBCMT:winapinls.obj
 0002:00005770       ??_C@_1M@HOIKODND@?$AAd?$AAe?$AA?9?$AAL?$AAU?$AA?$AA@ 0000000180024770     LIBCMT:winapinls.obj
 0002:00005780       ??_C@_1M@DDOCCGFG@?$AAe?$AAn?$AA?9?$AAC?$AAA?$AA?$AA@ 0000000180024780     LIBCMT:winapinls.obj
 0002:00005790       ??_C@_1M@BNOEMJLF@?$AAe?$AAs?$AA?9?$AAG?$AAT?$AA?$AA@ 0000000180024790     LIBCMT:winapinls.obj
 0002:000057a0       ??_C@_1M@EOGNKEK@?$AAf?$AAr?$AA?9?$AAC?$AAH?$AA?$AA@ 00000001800247a0     LIBCMT:winapinls.obj
 0002:000057b0       ??_C@_1M@FLIDJFHL@?$AAh?$AAr?$AA?9?$AAB?$AAA?$AA?$AA@ 00000001800247b0     LIBCMT:winapinls.obj
 0002:000057c0       ??_C@_1O@FMCELNAJ@?$AAs?$AAm?$AAj?$AA?9?$AAN?$AAO?$AA?$AA@ 00000001800247c0     LIBCMT:winapinls.obj
 0002:000057d0       ??_C@_1M@JHGLJMGJ@?$AAa?$AAr?$AA?9?$AAD?$AAZ?$AA?$AA@ 00000001800247d0     LIBCMT:winapinls.obj
 0002:000057e0       ??_C@_1M@JKKFDCNP@?$AAz?$AAh?$AA?9?$AAM?$AAO?$AA?$AA@ 00000001800247e0     LIBCMT:winapinls.obj
 0002:000057f0       ??_C@_1M@GEEFALPE@?$AAd?$AAe?$AA?9?$AAL?$AAI?$AA?$AA@ 00000001800247f0     LIBCMT:winapinls.obj
 0002:00005800       ??_C@_1M@IGEOFBG@?$AAe?$AAn?$AA?9?$AAN?$AAZ?$AA?$AA@ 0000000180024800     LIBCMT:winapinls.obj
 0002:00005810       ??_C@_1M@KDBONEHP@?$AAe?$AAs?$AA?9?$AAC?$AAR?$AA?$AA@ 0000000180024810     LIBCMT:winapinls.obj
 0002:00005820       ??_C@_1M@FHMDOHNN@?$AAf?$AAr?$AA?9?$AAL?$AAU?$AA?$AA@ 0000000180024820     LIBCMT:winapinls.obj
 0002:00005830       ??_C@_1BG@NFKKMAFG@?$AAb?$AAs?$AA?9?$AAB?$AAA?$AA?9?$AAL?$AAa?$AAt?$AAn?$AA?$AA@ 0000000180024830     LIBCMT:winapinls.obj
 0002:00005848       ??_C@_1O@IMNBEMCI@?$AAs?$AAm?$AAj?$AA?9?$AAS?$AAE?$AA?$AA@ 0000000180024848     LIBCMT:winapinls.obj
 0002:00005858       ??_C@_1M@DHHMBNDP@?$AAa?$AAr?$AA?9?$AAM?$AAA?$AA?$AA@ 0000000180024858     LIBCMT:winapinls.obj
 0002:00005868       ??_C@_1M@BNBLJCGH@?$AAe?$AAn?$AA?9?$AAI?$AAE?$AA?$AA@ 0000000180024868     LIBCMT:winapinls.obj
 0002:00005878       ??_C@_1M@GEPAFMDL@?$AAe?$AAs?$AA?9?$AAP?$AAA?$AA?$AA@ 0000000180024878     LIBCMT:winapinls.obj
 0002:00005888       ??_C@_1M@OJONDMDL@?$AAf?$AAr?$AA?9?$AAM?$AAC?$AA?$AA@ 0000000180024888     LIBCMT:winapinls.obj
 0002:00005898       ??_C@_1BG@OBCNFJB@?$AAs?$AAr?$AA?9?$AAB?$AAA?$AA?9?$AAL?$AAa?$AAt?$AAn?$AA?$AA@ 0000000180024898     LIBCMT:winapinls.obj
 0002:000058b0       ??_C@_1O@KEMEEGPO@?$AAs?$AAm?$AAa?$AA?9?$AAN?$AAO?$AA?$AA@ 00000001800248b0     LIBCMT:winapinls.obj
 0002:000058c0       ??_C@_1M@ELMGFODK@?$AAa?$AAr?$AA?9?$AAT?$AAN?$AA?$AA@ 00000001800248c0     LIBCMT:winapinls.obj
 0002:000058d0       ??_C@_1M@BHDLHFAF@?$AAe?$AAn?$AA?9?$AAZ?$AAA?$AA?$AA@ 00000001800248d0     LIBCMT:winapinls.obj
 0002:000058e0       ??_C@_1M@BMGIGLIF@?$AAe?$AAs?$AA?9?$AAD?$AAO?$AA?$AA@ 00000001800248e0     LIBCMT:winapinls.obj
 0002:000058f0       ??_C@_1BG@CMBHIPBE@?$AAs?$AAr?$AA?9?$AAB?$AAA?$AA?9?$AAC?$AAy?$AAr?$AAl?$AA?$AA@ 00000001800248f0     LIBCMT:winapinls.obj
 0002:00005908       ??_C@_1O@HEDBLHNP@?$AAs?$AAm?$AAa?$AA?9?$AAS?$AAE?$AA?$AA@ 0000000180024908     LIBCMT:winapinls.obj
 0002:00005918       ??_C@_1M@DAGCADIM@?$AAa?$AAr?$AA?9?$AAO?$AAM?$AA?$AA@ 0000000180024918     LIBCMT:winapinls.obj
 0002:00005928       ??_C@_1M@FODLMICG@?$AAe?$AAn?$AA?9?$AAJ?$AAM?$AA?$AA@ 0000000180024928     LIBCMT:winapinls.obj
 0002:00005938       ??_C@_1M@DNMLCIHB@?$AAe?$AAs?$AA?9?$AAV?$AAE?$AA?$AA@ 0000000180024938     LIBCMT:winapinls.obj
 0002:00005948       ??_C@_1O@EOKHMKJK@?$AAs?$AAm?$AAs?$AA?9?$AAF?$AAI?$AA?$AA@ 0000000180024948     LIBCMT:winapinls.obj
 0002:00005958       ??_C@_1M@CAFJMKOF@?$AAa?$AAr?$AA?9?$AAY?$AAE?$AA?$AA@ 0000000180024958     LIBCMT:winapinls.obj
 0002:00005968       ??_C@_1M@CBFHIJLI@?$AAe?$AAn?$AA?9?$AAC?$AAB?$AA?$AA@ 0000000180024968     LIBCMT:winapinls.obj
 0002:00005978       ??_C@_1M@BGNFLDN@?$AAe?$AAs?$AA?9?$AAC?$AAO?$AA?$AA@ 0000000180024978     LIBCMT:winapinls.obj
 0002:00005988       ??_C@_1O@JMPHMAMC@?$AAs?$AAm?$AAn?$AA?9?$AAF?$AAI?$AA?$AA@ 0000000180024988     LIBCMT:winapinls.obj
 0002:00005998       ??_C@_1M@JLANABKE@?$AAa?$AAr?$AA?9?$AAS?$AAY?$AA?$AA@ 0000000180024998     LIBCMT:winapinls.obj
 0002:000059a8       ??_C@_1M@HPKGCFGN@?$AAe?$AAn?$AA?9?$AAB?$AAZ?$AA?$AA@ 00000001800249a8     LIBCMT:winapinls.obj
 0002:000059b8       ??_C@_1M@OLJCMLGM@?$AAe?$AAs?$AA?9?$AAP?$AAE?$AA?$AA@ 00000001800249b8     LIBCMT:winapinls.obj
 0002:000059c8       ??_C@_1M@MKKGFKLE@?$AAa?$AAr?$AA?9?$AAJ?$AAO?$AA?$AA@ 00000001800249c8     LIBCMT:winapinls.obj
 0002:000059d8       ??_C@_1M@EKPGLDNI@?$AAe?$AAn?$AA?9?$AAT?$AAT?$AA?$AA@ 00000001800249d8     LIBCMT:winapinls.obj
 0002:000059e8       ??_C@_1M@OONGHFHE@?$AAe?$AAs?$AA?9?$AAA?$AAR?$AA?$AA@ 00000001800249e8     LIBCMT:winapinls.obj
 0002:000059f8       ??_C@_1M@OOJFGBHE@?$AAa?$AAr?$AA?9?$AAL?$AAB?$AA?$AA@ 00000001800249f8     LIBCMT:winapinls.obj
 0002:00005a08       ??_C@_1M@GCEJHNEG@?$AAe?$AAn?$AA?9?$AAZ?$AAW?$AA?$AA@ 0000000180024a08     LIBCMT:winapinls.obj
 0002:00005a18       ??_C@_1M@JNOCAHJI@?$AAe?$AAs?$AA?9?$AAE?$AAC?$AA?$AA@ 0000000180024a18     LIBCMT:winapinls.obj
 0002:00005a28       ??_C@_1M@JEFHPGGB@?$AAa?$AAr?$AA?9?$AAK?$AAW?$AA?$AA@ 0000000180024a28     LIBCMT:winapinls.obj
 0002:00005a38       ??_C@_1M@MLKIBJOJ@?$AAe?$AAn?$AA?9?$AAP?$AAH?$AA?$AA@ 0000000180024a38     LIBCMT:winapinls.obj
 0002:00005a48       ??_C@_1M@BDNIPEND@?$AAe?$AAs?$AA?9?$AAC?$AAL?$AA?$AA@ 0000000180024a48     LIBCMT:winapinls.obj
 0002:00005a58       ??_C@_1M@MPNMEKBD@?$AAa?$AAr?$AA?9?$AAA?$AAE?$AA?$AA@ 0000000180024a58     LIBCMT:winapinls.obj
 0002:00005a68       ??_C@_1M@KBJALCPI@?$AAe?$AAs?$AA?9?$AAU?$AAY?$AA?$AA@ 0000000180024a68     LIBCMT:winapinls.obj
 0002:00005a78       ??_C@_1M@LLCCOAGA@?$AAa?$AAr?$AA?9?$AAB?$AAH?$AA?$AA@ 0000000180024a78     LIBCMT:winapinls.obj
 0002:00005a88       ??_C@_1M@PBFNCDEL@?$AAe?$AAs?$AA?9?$AAP?$AAY?$AA?$AA@ 0000000180024a88     LIBCMT:winapinls.obj
 0002:00005a98       ??_C@_1M@EDGINPNP@?$AAa?$AAr?$AA?9?$AAQ?$AAA?$AA?$AA@ 0000000180024a98     LIBCMT:winapinls.obj
 0002:00005aa8       ??_C@_1M@MKDBIIJI@?$AAe?$AAs?$AA?9?$AAB?$AAO?$AA?$AA@ 0000000180024aa8     LIBCMT:winapinls.obj
 0002:00005ab8       ??_C@_1M@CPKKEBLD@?$AAe?$AAs?$AA?9?$AAS?$AAV?$AA?$AA@ 0000000180024ab8     LIBCMT:winapinls.obj
 0002:00005ac8       ??_C@_1M@NDBGMMJL@?$AAe?$AAs?$AA?9?$AAH?$AAN?$AA?$AA@ 0000000180024ac8     LIBCMT:winapinls.obj
 0002:00005ad8       ??_C@_1M@JIJIBHDP@?$AAe?$AAs?$AA?9?$AAN?$AAI?$AA?$AA@ 0000000180024ad8     LIBCMT:winapinls.obj
 0002:00005ae8       ??_C@_1M@CGFMKEEK@?$AAe?$AAs?$AA?9?$AAP?$AAR?$AA?$AA@ 0000000180024ae8     LIBCMT:winapinls.obj
 0002:00005af8       ??_C@_1O@ICJHKIIK@?$AAz?$AAh?$AA?9?$AAC?$AAH?$AAT?$AA?$AA@ 0000000180024af8     LIBCMT:winapinls.obj
 0002:00005b08       ??_C@_15CLNEJCE@?$AAs?$AAr?$AA?$AA@ 0000000180024b08     LIBCMT:winapinls.obj
 0002:00005b10       ??_C@_1M@KAHEKEIG@?$AAa?$AAf?$AA?9?$AAz?$AAa?$AA?$AA@ 0000000180024b10     LIBCMT:winapinls.obj
 0002:00005b20       ??_C@_1M@GIECOABL@?$AAa?$AAr?$AA?9?$AAa?$AAe?$AA?$AA@ 0000000180024b20     LIBCMT:winapinls.obj
 0002:00005b30       ??_C@_1M@BMLMEKGI@?$AAa?$AAr?$AA?9?$AAb?$AAh?$AA?$AA@ 0000000180024b30     LIBCMT:winapinls.obj
 0002:00005b40       ??_C@_1M@DAPFDGGB@?$AAa?$AAr?$AA?9?$AAd?$AAz?$AA?$AA@ 0000000180024b40     LIBCMT:winapinls.obj
 0002:00005b50       ??_C@_1M@FJNKGKIG@?$AAa?$AAr?$AA?9?$AAe?$AAg?$AA?$AA@ 0000000180024b50     LIBCMT:winapinls.obj
 0002:00005b60       ??_C@_1M@FLGKKCLO@?$AAa?$AAr?$AA?9?$AAi?$AAq?$AA?$AA@ 0000000180024b60     LIBCMT:winapinls.obj
 0002:00005b70       ??_C@_1M@GNDIPALM@?$AAa?$AAr?$AA?9?$AAj?$AAo?$AA?$AA@ 0000000180024b70     LIBCMT:winapinls.obj
 0002:00005b80       ??_C@_1M@DDMJFMGJ@?$AAa?$AAr?$AA?9?$AAk?$AAw?$AA?$AA@ 0000000180024b80     LIBCMT:winapinls.obj
 0002:00005b90       ??_C@_1M@EJALMLHM@?$AAa?$AAr?$AA?9?$AAl?$AAb?$AA?$AA@ 0000000180024b90     LIBCMT:winapinls.obj
 0002:00005ba0       ??_C@_1M@MOBDBLOC@?$AAa?$AAr?$AA?9?$AAl?$AAy?$AA?$AA@ 0000000180024ba0     LIBCMT:winapinls.obj
 0002:00005bb0       ??_C@_1M@JAOCLHDH@?$AAa?$AAr?$AA?9?$AAm?$AAa?$AA?$AA@ 0000000180024bb0     LIBCMT:winapinls.obj
 0002:00005bc0       ??_C@_1M@JHPMKJIE@?$AAa?$AAr?$AA?9?$AAo?$AAm?$AA?$AA@ 0000000180024bc0     LIBCMT:winapinls.obj
 0002:00005bd0       ??_C@_1M@OEPGHFNH@?$AAa?$AAr?$AA?9?$AAq?$AAa?$AA?$AA@ 0000000180024bd0     LIBCMT:winapinls.obj
 0002:00005be0       ??_C@_1M@KJDONENM@?$AAa?$AAr?$AA?9?$AAs?$AAa?$AA?$AA@ 0000000180024be0     LIBCMT:winapinls.obj
 0002:00005bf0       ??_C@_1M@DMJDKLKM@?$AAa?$AAr?$AA?9?$AAs?$AAy?$AA?$AA@ 0000000180024bf0     LIBCMT:winapinls.obj
 0002:00005c00       ??_C@_1M@OMFIPEDC@?$AAa?$AAr?$AA?9?$AAt?$AAn?$AA?$AA@ 0000000180024c00     LIBCMT:winapinls.obj
 0002:00005c10       ??_C@_1M@IHMHGAON@?$AAa?$AAr?$AA?9?$AAy?$AAe?$AA?$AA@ 0000000180024c10     LIBCMT:winapinls.obj
 0002:00005c20       ??_C@_1BG@KDCPGJGB@?$AAa?$AAz?$AA?9?$AAa?$AAz?$AA?9?$AAc?$AAy?$AAr?$AAl?$AA?$AA@ 0000000180024c20     LIBCMT:winapinls.obj
 0002:00005c38       ??_C@_1BG@IBCKDDOE@?$AAa?$AAz?$AA?9?$AAa?$AAz?$AA?9?$AAl?$AAa?$AAt?$AAn?$AA?$AA@ 0000000180024c38     LIBCMT:winapinls.obj
 0002:00005c50       ??_C@_1M@EGPFDCPD@?$AAb?$AAe?$AA?9?$AAb?$AAy?$AA?$AA@ 0000000180024c50     LIBCMT:winapinls.obj
 0002:00005c60       ??_C@_1M@PCMGMCGC@?$AAb?$AAg?$AA?9?$AAb?$AAg?$AA?$AA@ 0000000180024c60     LIBCMT:winapinls.obj
 0002:00005c70       ??_C@_1M@BJBMFGOB@?$AAb?$AAn?$AA?9?$AAi?$AAn?$AA?$AA@ 0000000180024c70     LIBCMT:winapinls.obj
 0002:00005c80       ??_C@_1BG@EAKMMACD@?$AAb?$AAs?$AA?9?$AAb?$AAa?$AA?9?$AAl?$AAa?$AAt?$AAn?$AA?$AA@ 0000000180024c80     LIBCMT:winapinls.obj
 0002:00005c98       ??_C@_1M@KGADAODK@?$AAc?$AAa?$AA?9?$AAe?$AAs?$AA?$AA@ 0000000180024c98     LIBCMT:winapinls.obj
 0002:00005ca8       ??_C@_1M@COAJPDHI@?$AAc?$AAs?$AA?9?$AAc?$AAz?$AA?$AA@ 0000000180024ca8     LIBCMT:winapinls.obj
 0002:00005cb8       ??_C@_1M@DHBHFONH@?$AAc?$AAy?$AA?9?$AAg?$AAb?$AA?$AA@ 0000000180024cb8     LIBCMT:winapinls.obj
 0002:00005cc8       ??_C@_1M@IMGKELGA@?$AAd?$AAa?$AA?9?$AAd?$AAk?$AA?$AA@ 0000000180024cc8     LIBCMT:winapinls.obj
 0002:00005cd8       ??_C@_1M@NNDGDNGA@?$AAd?$AAe?$AA?9?$AAa?$AAt?$AA?$AA@ 0000000180024cd8     LIBCMT:winapinls.obj
 0002:00005ce8       ??_C@_1M@IKDBHEEM@?$AAd?$AAe?$AA?9?$AAc?$AAh?$AA?$AA@ 0000000180024ce8     LIBCMT:winapinls.obj
 0002:00005cf8       ??_C@_1M@GFFOJMCJ@?$AAd?$AAe?$AA?9?$AAd?$AAe?$AA?$AA@ 0000000180024cf8     LIBCMT:winapinls.obj
 0002:00005d08       ??_C@_1M@MDNLKBPM@?$AAd?$AAe?$AA?9?$AAl?$AAi?$AA?$AA@ 0000000180024d08     LIBCMT:winapinls.obj
 0002:00005d18       ??_C@_1M@NJBEEJNL@?$AAd?$AAe?$AA?9?$AAl?$AAu?$AA?$AA@ 0000000180024d18     LIBCMT:winapinls.obj
 0002:00005d28       ??_C@_1O@GNNELBAP@?$AAd?$AAi?$AAv?$AA?9?$AAm?$AAv?$AA?$AA@ 0000000180024d28     LIBCMT:winapinls.obj
 0002:00005d38       ??_C@_1M@EJLEOGAE@?$AAe?$AAl?$AA?9?$AAg?$AAr?$AA?$AA@ 0000000180024d38     LIBCMT:winapinls.obj
 0002:00005d48       ??_C@_1M@GMPONJN@?$AAe?$AAn?$AA?9?$AAa?$AAu?$AA?$AA@ 0000000180024d48     LIBCMT:winapinls.obj
 0002:00005d58       ??_C@_1M@NIDIIPGF@?$AAe?$AAn?$AA?9?$AAb?$AAz?$AA?$AA@ 0000000180024d58     LIBCMT:winapinls.obj
 0002:00005d68       ??_C@_1M@JEHMIMFO@?$AAe?$AAn?$AA?9?$AAc?$AAa?$AA?$AA@ 0000000180024d68     LIBCMT:winapinls.obj
 0002:00005d78       ??_C@_1M@IGMJCDLA@?$AAe?$AAn?$AA?9?$AAc?$AAb?$AA?$AA@ 0000000180024d78     LIBCMT:winapinls.obj
 0002:00005d88       ??_C@_1M@BNFIGBKG@?$AAe?$AAn?$AA?9?$AAg?$AAb?$AA?$AA@ 0000000180024d88     LIBCMT:winapinls.obj
 0002:00005d98       ??_C@_1M@LKIFDIGP@?$AAe?$AAn?$AA?9?$AAi?$AAe?$AA?$AA@ 0000000180024d98     LIBCMT:winapinls.obj
 0002:00005da8       ??_C@_1M@PJKFGCCO@?$AAe?$AAn?$AA?9?$AAj?$AAm?$AA?$AA@ 0000000180024da8     LIBCMT:winapinls.obj
 0002:00005db8       ??_C@_1M@KPPKEPBO@?$AAe?$AAn?$AA?9?$AAn?$AAz?$AA?$AA@ 0000000180024db8     LIBCMT:winapinls.obj
 0002:00005dc8       ??_C@_1M@GMDGLDOB@?$AAe?$AAn?$AA?9?$AAp?$AAh?$AA?$AA@ 0000000180024dc8     LIBCMT:winapinls.obj
 0002:00005dd8       ??_C@_1M@ONGIBJNA@?$AAe?$AAn?$AA?9?$AAt?$AAt?$AA?$AA@ 0000000180024dd8     LIBCMT:winapinls.obj
 0002:00005de8       ??_C@_1M@LLODPCMM@?$AAe?$AAn?$AA?9?$AAu?$AAs?$AA?$AA@ 0000000180024de8     LIBCMT:winapinls.obj
 0002:00005df8       ??_C@_1M@LAKFNPAN@?$AAe?$AAn?$AA?9?$AAz?$AAa?$AA?$AA@ 0000000180024df8     LIBCMT:winapinls.obj
 0002:00005e08       ??_C@_1M@MFNHNHEO@?$AAe?$AAn?$AA?9?$AAz?$AAw?$AA?$AA@ 0000000180024e08     LIBCMT:winapinls.obj
 0002:00005e18       ??_C@_1M@EJEINPHM@?$AAe?$AAs?$AA?9?$AAa?$AAr?$AA?$AA@ 0000000180024e18     LIBCMT:winapinls.obj
 0002:00005e28       ??_C@_1M@GNKPCCJA@?$AAe?$AAs?$AA?9?$AAb?$AAo?$AA?$AA@ 0000000180024e28     LIBCMT:winapinls.obj
 0002:00005e38       ??_C@_1M@LEEGFONL@?$AAe?$AAs?$AA?9?$AAc?$AAl?$AA?$AA@ 0000000180024e38     LIBCMT:winapinls.obj
 0002:00005e48       ??_C@_1M@KGPDPBDF@?$AAe?$AAs?$AA?9?$AAc?$AAo?$AA?$AA@ 0000000180024e48     LIBCMT:winapinls.obj
 0002:00005e58       ??_C@_1M@EIAHOHH@?$AAe?$AAs?$AA?9?$AAc?$AAr?$AA?$AA@ 0000000180024e58     LIBCMT:winapinls.obj
 0002:00005e68       ??_C@_1M@LLPGMBIN@?$AAe?$AAs?$AA?9?$AAd?$AAo?$AA?$AA@ 0000000180024e68     LIBCMT:winapinls.obj
 0002:00005e78       ??_C@_1M@DKHMKNJA@?$AAe?$AAs?$AA?9?$AAe?$AAc?$AA?$AA@ 0000000180024e78     LIBCMT:winapinls.obj
 0002:00005e88       ??_C@_1M@GKGFPKAP@?$AAe?$AAs?$AA?9?$AAe?$AAs?$AA?$AA@ 0000000180024e88     LIBCMT:winapinls.obj
 0002:00005e98       ??_C@_1M@LKHKGDLN@?$AAe?$AAs?$AA?9?$AAg?$AAt?$AA?$AA@ 0000000180024e98     LIBCMT:winapinls.obj
 0002:00005ea8       ??_C@_1M@HEIIGGJD@?$AAe?$AAs?$AA?9?$AAh?$AAn?$AA?$AA@ 0000000180024ea8     LIBCMT:winapinls.obj
 0002:00005eb8       ??_C@_1M@FBDHPPGD@?$AAe?$AAs?$AA?9?$AAm?$AAx?$AA?$AA@ 0000000180024eb8     LIBCMT:winapinls.obj
 0002:00005ec8       ??_C@_1M@DPAGLNDH@?$AAe?$AAs?$AA?9?$AAn?$AAi?$AA?$AA@ 0000000180024ec8     LIBCMT:winapinls.obj
 0002:00005ed8       ??_C@_1M@MDGOPGDD@?$AAe?$AAs?$AA?9?$AAp?$AAa?$AA?$AA@ 0000000180024ed8     LIBCMT:winapinls.obj
 0002:00005ee8       ??_C@_1M@EMAMGBGE@?$AAe?$AAs?$AA?9?$AAp?$AAe?$AA?$AA@ 0000000180024ee8     LIBCMT:winapinls.obj
 0002:00005ef8       ??_C@_1M@IBMCAOEC@?$AAe?$AAs?$AA?9?$AAp?$AAr?$AA?$AA@ 0000000180024ef8     LIBCMT:winapinls.obj
 0002:00005f08       ??_C@_1M@FGMDIJED@?$AAe?$AAs?$AA?9?$AAp?$AAy?$AA?$AA@ 0000000180024f08     LIBCMT:winapinls.obj
 0002:00005f18       ??_C@_1M@IIDEOLLL@?$AAe?$AAs?$AA?9?$AAs?$AAv?$AA?$AA@ 0000000180024f18     LIBCMT:winapinls.obj
 0002:00005f28       ??_C@_1M@GAOBIPA@?$AAe?$AAs?$AA?9?$AAu?$AAy?$AA?$AA@ 0000000180024f28     LIBCMT:winapinls.obj
 0002:00005f38       ??_C@_1M@JKFFICHJ@?$AAe?$AAs?$AA?9?$AAv?$AAe?$AA?$AA@ 0000000180024f38     LIBCMT:winapinls.obj
 0002:00005f48       ??_C@_1M@PNMLOJDF@?$AAe?$AAt?$AA?9?$AAe?$AAe?$AA?$AA@ 0000000180024f48     LIBCMT:winapinls.obj
 0002:00005f58       ??_C@_1M@GHHLIKEI@?$AAe?$AAu?$AA?9?$AAe?$AAs?$AA?$AA@ 0000000180024f58     LIBCMT:winapinls.obj
 0002:00005f68       ??_C@_1M@PBNONODE@?$AAf?$AAa?$AA?9?$AAi?$AAr?$AA?$AA@ 0000000180024f68     LIBCMT:winapinls.obj
 0002:00005f78       ??_C@_1M@JEEHPMIL@?$AAf?$AAi?$AA?9?$AAf?$AAi?$AA?$AA@ 0000000180024f78     LIBCMT:winapinls.obj
 0002:00005f88       ??_C@_1M@LMDCNDBA@?$AAf?$AAo?$AA?9?$AAf?$AAo?$AA?$AA@ 0000000180024f88     LIBCMT:winapinls.obj
 0002:00005f98       ??_C@_1M@JKEOHLDK@?$AAf?$AAr?$AA?9?$AAb?$AAe?$AA?$AA@ 0000000180024f98     LIBCMT:winapinls.obj
 0002:00005fa8       ??_C@_1M@NOHADPMI@?$AAf?$AAr?$AA?9?$AAc?$AAa?$AA?$AA@ 0000000180024fa8     LIBCMT:winapinls.obj
 0002:00005fb8       ??_C@_1M@KDHIHAEC@?$AAf?$AAr?$AA?9?$AAc?$AAh?$AA?$AA@ 0000000180024fb8     LIBCMT:winapinls.obj
 0002:00005fc8       ??_C@_1M@MMBBFGAK@?$AAf?$AAr?$AA?9?$AAf?$AAr?$AA?$AA@ 0000000180024fc8     LIBCMT:winapinls.obj
 0002:00005fd8       ??_C@_1M@PAFNENNF@?$AAf?$AAr?$AA?9?$AAl?$AAu?$AA?$AA@ 0000000180024fd8     LIBCMT:winapinls.obj
 0002:00005fe8       ??_C@_1M@EOHDJGDD@?$AAf?$AAr?$AA?9?$AAm?$AAc?$AA?$AA@ 0000000180024fe8     LIBCMT:winapinls.obj
 0002:00005ff8       ??_C@_1M@FAPLLOPF@?$AAg?$AAl?$AA?9?$AAe?$AAs?$AA?$AA@ 0000000180024ff8     LIBCMT:winapinls.obj
 0002:00006008       ??_C@_1M@FOPBFLOO@?$AAg?$AAu?$AA?9?$AAi?$AAn?$AA?$AA@ 0000000180025008     LIBCMT:winapinls.obj
 0002:00006018       ??_C@_1M@KBMCINPM@?$AAh?$AAe?$AA?9?$AAi?$AAl?$AA?$AA@ 0000000180025018     LIBCMT:winapinls.obj
 0002:00006028       ??_C@_1M@BBPHKFPJ@?$AAh?$AAi?$AA?9?$AAi?$AAn?$AA?$AA@ 0000000180025028     LIBCMT:winapinls.obj
 0002:00006038       ??_C@_1M@PMBNDPHD@?$AAh?$AAr?$AA?9?$AAb?$AAa?$AA?$AA@ 0000000180025038     LIBCMT:winapinls.obj
 0002:00006048       ??_C@_1M@BPCKOEGE@?$AAh?$AAr?$AA?9?$AAh?$AAr?$AA?$AA@ 0000000180025048     LIBCMT:winapinls.obj
 0002:00006058       ??_C@_1M@GACBMHKE@?$AAh?$AAu?$AA?9?$AAh?$AAu?$AA?$AA@ 0000000180025058     LIBCMT:winapinls.obj
 0002:00006068       ??_C@_1M@MILPAJJC@?$AAh?$AAy?$AA?9?$AAa?$AAm?$AA?$AA@ 0000000180025068     LIBCMT:winapinls.obj
 0002:00006078       ??_C@_1M@BABBICEC@?$AAi?$AAd?$AA?9?$AAi?$AAd?$AA?$AA@ 0000000180025078     LIBCMT:winapinls.obj
 0002:00006088       ??_C@_1M@BIKNHHPF@?$AAi?$AAs?$AA?9?$AAi?$AAs?$AA?$AA@ 0000000180025088     LIBCMT:winapinls.obj
 0002:00006098       ??_C@_1M@NMPCJPHE@?$AAi?$AAt?$AA?9?$AAc?$AAh?$AA?$AA@ 0000000180025098     LIBCMT:winapinls.obj
 0002:000060a8       ??_C@_1M@GHKGFEDF@?$AAi?$AAt?$AA?9?$AAi?$AAt?$AA?$AA@ 00000001800250a8     LIBCMT:winapinls.obj
 0002:000060b8       ??_C@_1M@NIEJCJJA@?$AAj?$AAa?$AA?9?$AAj?$AAp?$AA?$AA@ 00000001800250b8     LIBCMT:winapinls.obj
 0002:000060c8       ??_C@_1M@JILFNBIM@?$AAk?$AAa?$AA?9?$AAg?$AAe?$AA?$AA@ 00000001800250c8     LIBCMT:winapinls.obj
 0002:000060d8       ??_C@_1M@PACPMGPH@?$AAk?$AAk?$AA?9?$AAk?$AAz?$AA?$AA@ 00000001800250d8     LIBCMT:winapinls.obj
 0002:000060e8       ??_C@_1M@IELFGMHA@?$AAk?$AAn?$AA?9?$AAi?$AAn?$AA?$AA@ 00000001800250e8     LIBCMT:winapinls.obj
 0002:000060f8       ??_C@_1O@IBBJHCH@?$AAk?$AAo?$AAk?$AA?9?$AAi?$AAn?$AA?$AA@ 00000001800250f8     LIBCMT:winapinls.obj
 0002:00006108       ??_C@_1M@DMHAEOGC@?$AAk?$AAo?$AA?9?$AAk?$AAr?$AA?$AA@ 0000000180025108     LIBCMT:winapinls.obj
 0002:00006118       ??_C@_1M@HBAHBIGA@?$AAk?$AAy?$AA?9?$AAk?$AAg?$AA?$AA@ 0000000180025118     LIBCMT:winapinls.obj
 0002:00006128       ??_C@_1M@KPMILCJG@?$AAl?$AAt?$AA?9?$AAl?$AAt?$AA?$AA@ 0000000180025128     LIBCMT:winapinls.obj
 0002:00006138       ??_C@_1M@BDEKKCA@?$AAl?$AAv?$AA?9?$AAl?$AAv?$AA?$AA@ 0000000180025138     LIBCMT:winapinls.obj
 0002:00006148       ??_C@_1M@ELCKCCJJ@?$AAm?$AAi?$AA?9?$AAn?$AAz?$AA?$AA@ 0000000180025148     LIBCMT:winapinls.obj
 0002:00006158       ??_C@_1M@CBOOLAPA@?$AAm?$AAk?$AA?9?$AAm?$AAk?$AA?$AA@ 0000000180025158     LIBCMT:winapinls.obj
 0002:00006168       ??_C@_1M@GPHNBJKN@?$AAm?$AAl?$AA?9?$AAi?$AAn?$AA?$AA@ 0000000180025168     LIBCMT:winapinls.obj
 0002:00006178       ??_C@_1M@PABJILIG@?$AAm?$AAn?$AA?9?$AAm?$AAn?$AA?$AA@ 0000000180025178     LIBCMT:winapinls.obj
 0002:00006188       ??_C@_1M@FGBKKIPG@?$AAm?$AAr?$AA?9?$AAi?$AAn?$AA?$AA@ 0000000180025188     LIBCMT:winapinls.obj
 0002:00006198       ??_C@_1M@NDBPDDAL@?$AAm?$AAs?$AA?9?$AAb?$AAn?$AA?$AA@ 0000000180025198     LIBCMT:winapinls.obj
 0002:000061a8       ??_C@_1M@OPIHOOPI@?$AAm?$AAs?$AA?9?$AAm?$AAy?$AA?$AA@ 00000001800251a8     LIBCMT:winapinls.obj
 0002:000061b8       ??_C@_1M@PPDBCNFM@?$AAm?$AAt?$AA?9?$AAm?$AAt?$AA?$AA@ 00000001800251b8     LIBCMT:winapinls.obj
 0002:000061c8       ??_C@_1M@KDJDKMDD@?$AAn?$AAb?$AA?9?$AAn?$AAo?$AA?$AA@ 00000001800251c8     LIBCMT:winapinls.obj
 0002:000061d8       ??_C@_1M@KFCFLMJP@?$AAn?$AAl?$AA?9?$AAb?$AAe?$AA?$AA@ 00000001800251d8     LIBCMT:winapinls.obj
 0002:000061e8       ??_C@_1M@KPOPDDGO@?$AAn?$AAl?$AA?9?$AAn?$AAl?$AA?$AA@ 00000001800251e8     LIBCMT:winapinls.obj
 0002:000061f8       ??_C@_1M@LJKPEMLN@?$AAn?$AAn?$AA?9?$AAn?$AAo?$AA?$AA@ 00000001800251f8     LIBCMT:winapinls.obj
 0002:00006208       ??_C@_1M@BDGHHBFL@?$AAn?$AAs?$AA?9?$AAz?$AAa?$AA?$AA@ 0000000180025208     LIBCMT:winapinls.obj
 0002:00006218       ??_C@_1M@IDEHOAP@?$AAp?$AAa?$AA?9?$AAi?$AAn?$AA?$AA@ 0000000180025218     LIBCMT:winapinls.obj
 0002:00006228       ??_C@_1M@HDBKGOGH@?$AAp?$AAl?$AA?9?$AAp?$AAl?$AA?$AA@ 0000000180025228     LIBCMT:winapinls.obj
 0002:00006238       ??_C@_1M@LJLLCMEH@?$AAp?$AAt?$AA?9?$AAb?$AAr?$AA?$AA@ 0000000180025238     LIBCMT:winapinls.obj
 0002:00006248       ??_C@_1M@NCMONAAL@?$AAp?$AAt?$AA?9?$AAp?$AAt?$AA?$AA@ 0000000180025248     LIBCMT:winapinls.obj
 0002:00006258       ??_C@_1O@EAKMAJDN@?$AAq?$AAu?$AAz?$AA?9?$AAb?$AAo?$AA?$AA@ 0000000180025258     LIBCMT:winapinls.obj
 0002:00006268       ??_C@_1O@BHHPIGDN@?$AAq?$AAu?$AAz?$AA?9?$AAe?$AAc?$AA?$AA@ 0000000180025268     LIBCMT:winapinls.obj
 0002:00006278       ??_C@_1O@GBAPEKMJ@?$AAq?$AAu?$AAz?$AA?9?$AAp?$AAe?$AA?$AA@ 0000000180025278     LIBCMT:winapinls.obj
 0002:00006288       ??_C@_1M@CLGLEFBO@?$AAr?$AAo?$AA?9?$AAr?$AAo?$AA?$AA@ 0000000180025288     LIBCMT:winapinls.obj
 0002:00006298       ??_C@_1M@CEEDODME@?$AAr?$AAu?$AA?9?$AAr?$AAu?$AA?$AA@ 0000000180025298     LIBCMT:winapinls.obj
 0002:000062a8       ??_C@_1M@HPKKKMPP@?$AAs?$AAa?$AA?9?$AAi?$AAn?$AA?$AA@ 00000001800252a8     LIBCMT:winapinls.obj
 0002:000062b8       ??_C@_1M@BKMAIGOJ@?$AAs?$AAe?$AA?9?$AAf?$AAi?$AA?$AA@ 00000001800252b8     LIBCMT:winapinls.obj
 0002:000062c8       ??_C@_1M@NDPIFLFI@?$AAs?$AAe?$AA?9?$AAn?$AAo?$AA?$AA@ 00000001800252c8     LIBCMT:winapinls.obj
 0002:000062d8       ??_C@_1M@DANKKHJ@?$AAs?$AAe?$AA?9?$AAs?$AAe?$AA?$AA@ 00000001800252d8     LIBCMT:winapinls.obj
 0002:000062e8       ??_C@_1M@PNBLONPJ@?$AAs?$AAk?$AA?9?$AAs?$AAk?$AA?$AA@ 00000001800252e8     LIBCMT:winapinls.obj
 0002:000062f8       ??_C@_1M@LFMODOAL@?$AAs?$AAl?$AA?9?$AAs?$AAi?$AA?$AA@ 00000001800252f8     LIBCMT:winapinls.obj
 0002:00006308       ??_C@_1O@DFKOMPG@?$AAs?$AAm?$AAa?$AA?9?$AAn?$AAo?$AA?$AA@ 0000000180025308     LIBCMT:winapinls.obj
 0002:00006318       ??_C@_1O@NDKPBNNH@?$AAs?$AAm?$AAa?$AA?9?$AAs?$AAe?$AA?$AA@ 0000000180025318     LIBCMT:winapinls.obj
 0002:00006328       ??_C@_1O@PLLKBHAB@?$AAs?$AAm?$AAj?$AA?9?$AAn?$AAo?$AA?$AA@ 0000000180025328     LIBCMT:winapinls.obj
 0002:00006338       ??_C@_1O@CLEPOGCA@?$AAs?$AAm?$AAj?$AA?9?$AAs?$AAe?$AA?$AA@ 0000000180025338     LIBCMT:winapinls.obj
 0002:00006348       ??_C@_1O@DLGJGKMK@?$AAs?$AAm?$AAn?$AA?9?$AAf?$AAi?$AA?$AA@ 0000000180025348     LIBCMT:winapinls.obj
 0002:00006358       ??_C@_1O@OJDJGAJC@?$AAs?$AAm?$AAs?$AA?9?$AAf?$AAi?$AA?$AA@ 0000000180025358     LIBCMT:winapinls.obj
 0002:00006368       ??_C@_1M@BOFOGHPB@?$AAs?$AAq?$AA?9?$AAa?$AAl?$AA?$AA@ 0000000180025368     LIBCMT:winapinls.obj
 0002:00006378       ??_C@_1BG@LJBBIPGB@?$AAs?$AAr?$AA?9?$AAb?$AAa?$AA?9?$AAc?$AAy?$AAr?$AAl?$AA?$AA@ 0000000180025378     LIBCMT:winapinls.obj
 0002:00006390       ??_C@_1BG@JLBENFOE@?$AAs?$AAr?$AA?9?$AAb?$AAa?$AA?9?$AAl?$AAa?$AAt?$AAn?$AA?$AA@ 0000000180025390     LIBCMT:winapinls.obj
 0002:000063a8       ??_C@_1BG@KODPNHE@?$AAs?$AAr?$AA?9?$AAs?$AAp?$AA?9?$AAc?$AAy?$AAr?$AAl?$AA?$AA@ 00000001800253a8     LIBCMT:winapinls.obj
 0002:000063c0       ??_C@_1BG@CIOGKHPB@?$AAs?$AAr?$AA?9?$AAs?$AAp?$AA?9?$AAl?$AAa?$AAt?$AAn?$AA?$AA@ 00000001800253c0     LIBCMT:winapinls.obj
 0002:000063d8       ??_C@_1M@NGFJLMAC@?$AAs?$AAv?$AA?9?$AAf?$AAi?$AA?$AA@ 00000001800253d8     LIBCMT:winapinls.obj
 0002:000063e8       ??_C@_1M@MPJEJAJC@?$AAs?$AAv?$AA?9?$AAs?$AAe?$AA?$AA@ 00000001800253e8     LIBCMT:winapinls.obj
 0002:000063f8       ??_C@_1M@MPNDHLFK@?$AAs?$AAw?$AA?9?$AAk?$AAe?$AA?$AA@ 00000001800253f8     LIBCMT:winapinls.obj
 0002:00006408       ??_C@_1O@KOHBJJI@?$AAs?$AAy?$AAr?$AA?9?$AAs?$AAy?$AA?$AA@ 0000000180025408     LIBCMT:winapinls.obj
 0002:00006418       ??_C@_1M@LDCEFHA@?$AAt?$AAa?$AA?9?$AAi?$AAn?$AA?$AA@ 0000000180025418     LIBCMT:winapinls.obj
 0002:00006428       ??_C@_1M@CNJOFAK@?$AAt?$AAe?$AA?9?$AAi?$AAn?$AA?$AA@ 0000000180025428     LIBCMT:winapinls.obj
 0002:00006438       ??_C@_1M@GNAECACD@?$AAt?$AAh?$AA?9?$AAt?$AAh?$AA?$AA@ 0000000180025438     LIBCMT:winapinls.obj
 0002:00006448       ??_C@_1M@CHBIHOJO@?$AAt?$AAn?$AA?9?$AAz?$AAa?$AA?$AA@ 0000000180025448     LIBCMT:winapinls.obj
 0002:00006458       ??_C@_1M@GCCMIGPJ@?$AAt?$AAr?$AA?9?$AAt?$AAr?$AA?$AA@ 0000000180025458     LIBCMT:winapinls.obj
 0002:00006468       ??_C@_1M@CELMCNBK@?$AAt?$AAt?$AA?9?$AAr?$AAu?$AA?$AA@ 0000000180025468     LIBCMT:winapinls.obj
 0002:00006478       ??_C@_1M@KLMCELGA@?$AAu?$AAk?$AA?9?$AAu?$AAa?$AA?$AA@ 0000000180025478     LIBCMT:winapinls.obj
 0002:00006488       ??_C@_1M@EPAJJAJF@?$AAu?$AAr?$AA?9?$AAp?$AAk?$AA?$AA@ 0000000180025488     LIBCMT:winapinls.obj
 0002:00006498       ??_C@_1BG@GEGPMCDJ@?$AAu?$AAz?$AA?9?$AAu?$AAz?$AA?9?$AAc?$AAy?$AAr?$AAl?$AA?$AA@ 0000000180025498     LIBCMT:winapinls.obj
 0002:000064b0       ??_C@_1BG@EGGKJILM@?$AAu?$AAz?$AA?9?$AAu?$AAz?$AA?9?$AAl?$AAa?$AAt?$AAn?$AA?$AA@ 00000001800254b0     LIBCMT:winapinls.obj
 0002:000064c8       ??_C@_1M@GFOCLFF@?$AAv?$AAi?$AA?9?$AAv?$AAn?$AA?$AA@ 00000001800254c8     LIBCMT:winapinls.obj
 0002:000064d8       ??_C@_1M@CPAMEDFI@?$AAx?$AAh?$AA?9?$AAz?$AAa?$AA?$AA@ 00000001800254d8     LIBCMT:winapinls.obj
 0002:000064e8       ??_C@_1O@EBKIFIGN@?$AAz?$AAh?$AA?9?$AAc?$AAh?$AAs?$AA?$AA@ 00000001800254e8     LIBCMT:winapinls.obj
 0002:000064f8       ??_C@_1O@NMHPGANE@?$AAz?$AAh?$AA?9?$AAc?$AAh?$AAt?$AA?$AA@ 00000001800254f8     LIBCMT:winapinls.obj
 0002:00006508       ??_C@_1M@LPINJOMC@?$AAz?$AAh?$AA?9?$AAc?$AAn?$AA?$AA@ 0000000180025508     LIBCMT:winapinls.obj
 0002:00006518       ??_C@_1M@OCJEJODD@?$AAz?$AAh?$AA?9?$AAh?$AAk?$AA?$AA@ 0000000180025518     LIBCMT:winapinls.obj
 0002:00006528       ??_C@_1M@DNDLJINH@?$AAz?$AAh?$AA?9?$AAm?$AAo?$AA?$AA@ 0000000180025528     LIBCMT:winapinls.obj
 0002:00006538       ??_C@_1M@MBFDNDND@?$AAz?$AAh?$AA?9?$AAs?$AAg?$AA?$AA@ 0000000180025538     LIBCMT:winapinls.obj
 0002:00006548       ??_C@_1M@IMEPLEPE@?$AAz?$AAh?$AA?9?$AAt?$AAw?$AA?$AA@ 0000000180025548     LIBCMT:winapinls.obj
 0002:00006558       ??_C@_1M@BBGHNHJP@?$AAz?$AAu?$AA?9?$AAz?$AAa?$AA?$AA@ 0000000180025558     LIBCMT:winapinls.obj
 0002:00006580       ??_C@_03KHJOGHMM@exp?$AA@  0000000180025580     LIBCMT:fpexcept.obj
 0002:00006584       ??_C@_03JGHBODFD@pow?$AA@  0000000180025584     LIBCMT:fpexcept.obj
 0002:00006588       ??_C@_03MGHMBJCF@log?$AA@  0000000180025588     LIBCMT:fpexcept.obj
 0002:0000658c       ??_C@_05HGHHAHAP@log10?$AA@ 000000018002558c     LIBCMT:fpexcept.obj
 0002:00006594       ??_C@_04COOMCNPB@sinh?$AA@ 0000000180025594     LIBCMT:fpexcept.obj
 0002:0000659c       ??_C@_04HPJJNFIM@cosh?$AA@ 000000018002559c     LIBCMT:fpexcept.obj
 0002:000065a4       ??_C@_04FJHINJAO@tanh?$AA@ 00000001800255a4     LIBCMT:fpexcept.obj
 0002:000065ac       ??_C@_04FIHNOPOL@asin?$AA@ 00000001800255ac     LIBCMT:fpexcept.obj
 0002:000065b4       ??_C@_04PDIFKINK@acos?$AA@ 00000001800255b4     LIBCMT:fpexcept.obj
 0002:000065bc       ??_C@_04MLLJIGOK@atan?$AA@ 00000001800255bc     LIBCMT:fpexcept.obj
 0002:000065c4       ??_C@_05KNGEOGJB@atan2?$AA@ 00000001800255c4     LIBCMT:fpexcept.obj
 0002:000065cc       ??_C@_04EIAKFFMI@sqrt?$AA@ 00000001800255cc     LIBCMT:fpexcept.obj
 0002:000065d4       ??_C@_03BLEJJJBH@sin?$AA@  00000001800255d4     LIBCMT:fpexcept.obj
 0002:000065d8       ??_C@_03LALBNOCG@cos?$AA@  00000001800255d8     LIBCMT:fpexcept.obj
 0002:000065dc       ??_C@_03IIINPABG@tan?$AA@  00000001800255dc     LIBCMT:fpexcept.obj
 0002:000065e0       ??_C@_04GFPJNGEK@ceil?$AA@ 00000001800255e0     LIBCMT:fpexcept.obj
 0002:000065e8       ??_C@_05PBJFFIGL@floor?$AA@ 00000001800255e8     LIBCMT:fpexcept.obj
 0002:000065f0       ??_C@_04ODHECPBC@fabs?$AA@ 00000001800255f0     LIBCMT:fpexcept.obj
 0002:000065f8       ??_C@_04EHEDPDJG@modf?$AA@ 00000001800255f8     LIBCMT:fpexcept.obj
 0002:00006600       ??_C@_05CEJMAHNP@ldexp?$AA@ 0000000180025600     LIBCMT:fpexcept.obj
 0002:00006608       ??_C@_05KBKMEMPO@_cabs?$AA@ 0000000180025608     LIBCMT:fpexcept.obj
 0002:00006610       ??_C@_04KEPJIHGP@fmod?$AA@ 0000000180025610     LIBCMT:fpexcept.obj
 0002:00006618       ??_C@_05GKKHEGJL@frexp?$AA@ 0000000180025618     LIBCMT:fpexcept.obj
 0002:00006620       ??_C@_03MJLDFKDL@_y0?$AA@  0000000180025620     LIBCMT:fpexcept.obj
 0002:00006624       ??_C@_03NAKIGLHK@_y1?$AA@  0000000180025624     LIBCMT:fpexcept.obj
 0002:00006628       ??_C@_03ONILCKOB@_yn?$AA@  0000000180025628     LIBCMT:fpexcept.obj
 0002:0000662c       ??_C@_05JGDBENOH@_logb?$AA@ 000000018002562c     LIBCMT:fpexcept.obj
 0002:00006638       ??_C@_0L@KDOEJCKC@_nextafter?$AA@ 0000000180025638     LIBCMT:fpexcept.obj
 0002:00006650       __newctype                 0000000180025650     LIBCMT:ctype.obj
 0002:00006950       _wctype                    0000000180025950     LIBCMT:ctype.obj
 0002:00006b60       __newclmap                 0000000180025b60     LIBCMT:ctype.obj
 0002:00006ce0       __newcumap                 0000000180025ce0     LIBCMT:ctype.obj
 0002:00006e60       __rg_language_count        0000000180025e60     LIBCMT:getqloc.obj
 0002:00006e64       __rg_country_count         0000000180025e64     LIBCMT:getqloc.obj
 0002:00007188       ??_C@_08EHJDFFNH@__based?$CI?$AA@ 0000000180026188     LIBCMT:undname.obj
 0002:00007198       ??_C@_07KOLFKCDI@__cdecl?$AA@ 0000000180026198     LIBCMT:undname.obj
 0002:000071a0       ??_C@_08GHMPAG@__pascal?$AA@ 00000001800261a0     LIBCMT:undname.obj
 0002:000071b0       ??_C@_09IFJBGAPI@__stdcall?$AA@ 00000001800261b0     LIBCMT:undname.obj
 0002:000071c0       ??_C@_0L@NPHFGOKO@__thiscall?$AA@ 00000001800261c0     LIBCMT:undname.obj
 0002:000071d0       ??_C@_0L@JMKHOMEK@__fastcall?$AA@ 00000001800261d0     LIBCMT:undname.obj
 0002:000071e0       ??_C@_0N@BCKKPABJ@__vectorcall?$AA@ 00000001800261e0     LIBCMT:undname.obj
 0002:000071f0       ??_C@_09HIJEGCPM@__clrcall?$AA@ 00000001800261f0     LIBCMT:undname.obj
 0002:000071fc       ??_C@_06GHPCKEAG@__eabi?$AA@ 00000001800261fc     LIBCMT:undname.obj
 0002:00007208       ??_C@_07JOMMBBKO@__ptr64?$AA@ 0000000180026208     LIBCMT:undname.obj
 0002:00007210       ??_C@_0L@PILCLIHE@__restrict?$AA@ 0000000180026210     LIBCMT:undname.obj
 0002:00007220       ??_C@_0M@GFIIJFMG@__unaligned?$AA@ 0000000180026220     LIBCMT:undname.obj
 0002:00007230       ??_C@_09DHDLOLLB@restrict?$CI?$AA@ 0000000180026230     LIBCMT:undname.obj
 0002:0000723c       ??_C@_04NIHEBCM@?5new?$AA@ 000000018002623c     LIBCMT:undname.obj
 0002:00007248       ??_C@_07FPCDHGMM@?5delete?$AA@ 0000000180026248     LIBCMT:undname.obj
 0002:00007250       ??_C@_01NEMOKFLO@?$DN?$AA@ 0000000180026250     LIBCMT:undname.obj
 0002:00007254       ??_C@_02GPIOPFAK@?$DO?$DO?$AA@ 0000000180026254     LIBCMT:undname.obj
 0002:00007258       ??_C@_02FODMEDOG@?$DM?$DM?$AA@ 0000000180026258     LIBCMT:undname.obj
 0002:0000725c       ??_C@_01DCLJPIOD@?$CB?$AA@ 000000018002625c     LIBCMT:undname.obj
 0002:00007260       ??_C@_02EGOFBIJA@?$DN?$DN?$AA@ 0000000180026260     LIBCMT:undname.obj
 0002:00007264       ??_C@_02FDNJECIE@?$CB?$DN?$AA@ 0000000180026264     LIBCMT:undname.obj
 0002:00007268       ??_C@_02GPECMEKF@?$FL?$FN?$AA@ 0000000180026268     LIBCMT:undname.obj
 0002:00007270       ??_C@_08LHJFAFGD@operator?$AA@ 0000000180026270     LIBCMT:undname.obj
 0002:0000727c       ??_C@_02HBOOOICD@?9?$DO?$AA@ 000000018002627c     LIBCMT:undname.obj
 0002:00007280       ??_C@_01NBENCBCI@?$CK?$AA@ 0000000180026280     LIBCMT:undname.obj
 0002:00007284       ??_C@_02ECNGHCIF@?$CL?$CL?$AA@ 0000000180026284     LIBCMT:undname.obj
 0002:00007288       ??_C@_02BAABKJLB@?9?9?$AA@ 0000000180026288     LIBCMT:undname.obj
 0002:0000728c       ??_C@_01JOAMLHOP@?9?$AA@   000000018002628c     LIBCMT:undname.obj
 0002:00007290       ??_C@_01MIFGBAGJ@?$CL?$AA@ 0000000180026290     LIBCMT:undname.obj
 0002:00007294       ??_C@_01HNPIGOCE@?$CG?$AA@ 0000000180026294     LIBCMT:undname.obj
 0002:00007298       ??_C@_03MNHNFDLC@?9?$DO?$CK?$AA@ 0000000180026298     LIBCMT:undname.obj
 0002:0000729c       ??_C@_01KMDKNFGN@?1?$AA@   000000018002629c     LIBCMT:undname.obj
 0002:000072a0       ??_C@_01FGNFDNOH@?$CF?$AA@ 00000001800262a0     LIBCMT:undname.obj
 0002:000072a4       ??_C@_01MNNFJEPP@?$DM?$AA@ 00000001800262a4     LIBCMT:undname.obj
 0002:000072a8       ??_C@_02EHCHHCKH@?$DM?$DN?$AA@ 00000001800262a8     LIBCMT:undname.obj
 0002:000072ac       ??_C@_01PPODPGHN@?$DO?$AA@ 00000001800262ac     LIBCMT:undname.obj
 0002:000072b0       ??_C@_02EEKDKGMJ@?$DO?$DN?$AA@ 00000001800262b0     LIBCMT:undname.obj
 0002:000072b4       ??_C@_01IHBHIGKO@?0?$AA@   00000001800262b4     LIBCMT:undname.obj
 0002:000072b8       ??_C@_01PJKLJHI@?$HO?$AA@  00000001800262b8     LIBCMT:undname.obj
 0002:000072bc       ??_C@_01JKBOJNNK@?$FO?$AA@ 00000001800262bc     LIBCMT:undname.obj
 0002:000072c0       ??_C@_01DNKMNLPK@?$HM?$AA@ 00000001800262c0     LIBCMT:undname.obj
 0002:000072c4       ??_C@_02PPKAJPJL@?$CG?$CG?$AA@ 00000001800262c4     LIBCMT:undname.obj
 0002:000072c8       ??_C@_02NONPIBCD@?$HM?$HM?$AA@ 00000001800262c8     LIBCMT:undname.obj
 0002:000072cc       ??_C@_02FPIMKNGF@?$CK?$DN?$AA@ 00000001800262cc     LIBCMT:undname.obj
 0002:000072d0       ??_C@_02FOEOMHFC@?$CL?$DN?$AA@ 00000001800262d0     LIBCMT:undname.obj
 0002:000072d4       ??_C@_02FKMDLLOA@?9?$DN?$AA@ 00000001800262d4     LIBCMT:undname.obj
 0002:000072d8       ??_C@_02FJEHGPIO@?1?$DN?$AA@ 00000001800262d8     LIBCMT:undname.obj
 0002:000072dc       ??_C@_02FENAOKFI@?$CF?$DN?$AA@ 00000001800262dc     LIBCMT:undname.obj
 0002:000072e0       ??_C@_03IKFCCPFF@?$DO?$DO?$DN?$AA@ 00000001800262e0     LIBCMT:undname.obj
 0002:000072e4       ??_C@_03CDNPDDLA@?$DM?$DM?$DN?$AA@ 00000001800262e4     LIBCMT:undname.obj
 0002:000072e8       ??_C@_02FGJGFEAB@?$CG?$DN?$AA@ 00000001800262e8     LIBCMT:undname.obj
 0002:000072ec       ??_C@_02DHLNPPGH@?$HM?$DN?$AA@ 00000001800262ec     LIBCMT:undname.obj
 0002:000072f0       ??_C@_02MHEGNOJ@?$FO?$DN?$AA@ 00000001800262f0     LIBCMT:undname.obj
 0002:000072f8       ??_C@_09IFPLHPGF@?$GAvftable?8?$AA@ 00000001800262f8     LIBCMT:undname.obj
 0002:00007308       ??_C@_09BLBHBJP@?$GAvbtable?8?$AA@ 0000000180026308     LIBCMT:undname.obj
 0002:00007318       ??_C@_07FEEIOKP@?$GAvcall?8?$AA@ 0000000180026318     LIBCMT:undname.obj
 0002:00007320       ??_C@_08LLFFHHDJ@?$GAtypeof?8?$AA@ 0000000180026320     LIBCMT:undname.obj
 0002:00007330       ??_C@_0BF@KDPPACIK@?$GAlocal?5static?5guard?8?$AA@ 0000000180026330     LIBCMT:undname.obj
 0002:00007348       ??_C@_08OBABFOLI@?$GAstring?8?$AA@ 0000000180026348     LIBCMT:undname.obj
 0002:00007358       ??_C@_0BD@JDLKDPAB@?$GAvbase?5destructor?8?$AA@ 0000000180026358     LIBCMT:undname.obj
 0002:00007370       ??_C@_0BN@DEGPLNFK@?$GAvector?5deleting?5destructor?8?$AA@ 0000000180026370     LIBCMT:undname.obj
 0002:00007390       ??_C@_0BO@OBMKPJIG@?$GAdefault?5constructor?5closure?8?$AA@ 0000000180026390     LIBCMT:undname.obj
 0002:000073b0       ??_C@_0BN@IMDCHIKM@?$GAscalar?5deleting?5destructor?8?$AA@ 00000001800263b0     LIBCMT:undname.obj
 0002:000073d0       ??_C@_0BO@PFGOCPJJ@?$GAvector?5constructor?5iterator?8?$AA@ 00000001800263d0     LIBCMT:undname.obj
 0002:000073f0       ??_C@_0BN@LFPFMEDL@?$GAvector?5destructor?5iterator?8?$AA@ 00000001800263f0     LIBCMT:undname.obj
 0002:00007410       ??_C@_0CE@IKBNEHA@?$GAvector?5vbase?5constructor?5iterat@ 0000000180026410     LIBCMT:undname.obj
 0002:00007438       ??_C@_0BL@NILFHHPC@?$GAvirtual?5displacement?5map?8?$AA@ 0000000180026438     LIBCMT:undname.obj
 0002:00007458       ??_C@_0CB@JONCMFFK@?$GAeh?5vector?5constructor?5iterator?8@ 0000000180026458     LIBCMT:undname.obj
 0002:00007480       ??_C@_0CA@GCEOPDGL@?$GAeh?5vector?5destructor?5iterator?8?$AA@ 0000000180026480     LIBCMT:undname.obj
 0002:000074a0       ??_C@_0CH@OOJPLCPH@?$GAeh?5vector?5vbase?5constructor?5ite@ 00000001800264a0     LIBCMT:undname.obj
 0002:000074c8       ??_C@_0BL@LLKPOHJI@?$GAcopy?5constructor?5closure?8?$AA@ 00000001800264c8     LIBCMT:undname.obj
 0002:000074e8       ??_C@_0BA@KBCDOMBN@?$GAudt?5returning?8?$AA@ 00000001800264e8     LIBCMT:undname.obj
 0002:000074f8       ??_C@_03KLGMFNMG@?$GAEH?$AA@ 00000001800264f8     LIBCMT:undname.obj
 0002:000074fc       ??_C@_05KHLCHHI@?$GARTTI?$AA@ 00000001800264fc     LIBCMT:undname.obj
 0002:00007508       ??_C@_0BA@KKLDJDLB@?$GAlocal?5vftable?8?$AA@ 0000000180026508     LIBCMT:undname.obj
 0002:00007518       ??_C@_0CE@IIHCMGGL@?$GAlocal?5vftable?5constructor?5closu@ 0000000180026518     LIBCMT:undname.obj
 0002:0000753c       ??_C@_06FHBGPFGH@?5new?$FL?$FN?$AA@ 000000018002653c     LIBCMT:undname.obj
 0002:00007548       ??_C@_09LBNFPBCA@?5delete?$FL?$FN?$AA@ 0000000180026548     LIBCMT:undname.obj
 0002:00007558       ??_C@_0P@HJKNJFNN@?$GAomni?5callsig?8?$AA@ 0000000180026558     LIBCMT:undname.obj
 0002:00007568       ??_C@_0BL@CNOONJFP@?$GAplacement?5delete?5closure?8?$AA@ 0000000180026568     LIBCMT:undname.obj
 0002:00007588       ??_C@_0BN@CKNJLHMB@?$GAplacement?5delete?$FL?$FN?5closure?8?$AA@ 0000000180026588     LIBCMT:undname.obj
 0002:000075a8       ??_C@_0CG@CFDHKGGD@?$GAmanaged?5vector?5constructor?5iter@ 00000001800265a8     LIBCMT:undname.obj
 0002:000075d0       ??_C@_0CF@IMGKMJNO@?$GAmanaged?5vector?5destructor?5itera@ 00000001800265d0     LIBCMT:undname.obj
 0002:000075f8       ??_C@_0CG@HLDDJMAG@?$GAeh?5vector?5copy?5constructor?5iter@ 00000001800265f8     LIBCMT:undname.obj
 0002:00007620       ??_C@_0CM@FCBBDIGB@?$GAeh?5vector?5vbase?5copy?5constructo@ 0000000180026620     LIBCMT:undname.obj
 0002:00007650       ??_C@_0BL@CLIPGLGB@?$GAdynamic?5initializer?5for?5?8?$AA@ 0000000180026650     LIBCMT:undname.obj
 0002:00007670       ??_C@_0CB@PDBIFEP@?$GAdynamic?5atexit?5destructor?5for?5?8@ 0000000180026670     LIBCMT:undname.obj
 0002:00007698       ??_C@_0CD@CGAJBKEJ@?$GAvector?5copy?5constructor?5iterato@ 0000000180026698     LIBCMT:undname.obj
 0002:000076c0       ??_C@_0CJ@GJELGAMM@?$GAvector?5vbase?5copy?5constructor?5i@ 00000001800266c0     LIBCMT:undname.obj
 0002:000076f0       ??_C@_0CL@FGIJHLCE@?$GAmanaged?5vector?5copy?5constructor@ 00000001800266f0     LIBCMT:undname.obj
 0002:00007720       ??_C@_0BM@PMGGMLDN@?$GAlocal?5static?5thread?5guard?8?$AA@ 0000000180026720     LIBCMT:undname.obj
 0002:00007740       ??_C@_0BC@DAFEJGAK@?5Type?5Descriptor?8?$AA@ 0000000180026740     LIBCMT:undname.obj
 0002:00007758       ??_C@_0BM@LDKODKLH@?5Base?5Class?5Descriptor?5at?5?$CI?$AA@ 0000000180026758     LIBCMT:undname.obj
 0002:00007778       ??_C@_0BD@LGICGFMM@?5Base?5Class?5Array?8?$AA@ 0000000180026778     LIBCMT:undname.obj
 0002:00007790       ??_C@_0BN@MECKDCOJ@?5Class?5Hierarchy?5Descriptor?8?$AA@ 0000000180026790     LIBCMT:undname.obj
 0002:000077b0       ??_C@_0BK@CFCOFLF@?5Complete?5Object?5Locator?8?$AA@ 00000001800267b0     LIBCMT:undname.obj
 0002:000077d0       __lookuptable_s            00000001800267d0     LIBCMT:outputs.obj
 0002:0000782c       ??_C@_06PGGFOGJG@1?$CDSNAN?$AA@ 000000018002682c     LIBCMT:x10fout.obj
 0002:00007834       ??_C@_05PHHOCPM@1?$CDIND?$AA@ 0000000180026834     LIBCMT:x10fout.obj
 0002:0000783c       ??_C@_05DNEBIAHO@1?$CDINF?$AA@ 000000018002683c     LIBCMT:x10fout.obj
 0002:00007844       ??_C@_06IMKFLFPG@1?$CDQNAN?$AA@ 0000000180026844     LIBCMT:x10fout.obj
 0002:00007850       ??_C@_1BA@BALFACEM@?$AAC?$AAO?$AAN?$AAO?$AAU?$AAT?$AA$?$AA?$AA@ 0000000180026850     LIBCMT:initcon.obj
 0002:00007860       ??_C@_00CNPNBAHC@?$AA@     0000000180026860     serialport.obj
 0002:00007868       ??_C@_0BA@JFNIOLAK@string?5too?5long?$AA@ 0000000180026868     serialport.obj
 0002:00007880       ??_C@_1LE@ICBMLGLG@?$AAC?$AA?3?$AA?2?$AAb?$AAu?$AAt?$AAt?$AAe?$AAr?$AAf?$AAl?$AAu?$AAi?$AA?9?$AAs?$AAr?$AAc?$AA?2?$AAn?$AAo?$AAd?$AAe?$AA_?$AAm?$AAo?$AAd?$AAu?$AAl?$AAe?$AAs?$AA?2?$AAj@ 0000000180026880     serialport.obj
 0002:00007938       ??_C@_1BO@OPFMAOCA@?$AAl?$AAe?$AAn?$AA?5?$AA?$DM?$AA?$DN?$AA?5?$AAI?$AAN?$AAT?$AA_?$AAM?$AAA?$AAX?$AA?$AA@ 0000000180026938     serialport.obj
 0002:00007958       ??_C@_1BE@CKDJNAPC@?$AAs?$AAt?$AAr?$AA_?$AA?5?$AA?$CB?$AA?$DN?$AA?5?$AA0?$AA?$AA@ 0000000180026958     serialport.obj
 0002:00007970       ??_C@_0CA@PHEBDBMF@First?5argument?5must?5be?5a?5string?$AA@ 0000000180026970     serialport.obj
 0002:00007990       ??_C@_0CC@DOLIGLGO@Second?5argument?5must?5be?5an?5objec@ 0000000180026990     serialport.obj
 0002:000079b8       ??_C@_0CC@KNCIJJMF@Third?5argument?5must?5be?5a?5functio@ 00000001800269b8     serialport.obj
 0002:000079e0       ??_C@_08NACMADDF@baudRate?$AA@ 00000001800269e0     serialport.obj
 0002:000079f0       ??_C@_08OMEAOKAC@dataBits?$AA@ 00000001800269f0     serialport.obj
 0002:00007a00       ??_C@_0L@FCEIMOFK@bufferSize?$AA@ 0000000180026a00     serialport.obj
 0002:00007a0c       ??_C@_06CFGKCFEA@parity?$AA@ 0000000180026a0c     serialport.obj
 0002:00007a18       ??_C@_08LNOJODPP@stopBits?$AA@ 0000000180026a18     serialport.obj
 0002:00007a24       ??_C@_06EJNMIGBP@rtscts?$AA@ 0000000180026a24     serialport.obj
 0002:00007a2c       ??_C@_03MIMFGCKE@xon?$AA@  0000000180026a2c     serialport.obj
 0002:00007a30       ??_C@_04OMMHDPAK@xoff?$AA@ 0000000180026a30     serialport.obj
 0002:00007a38       ??_C@_04MPFBBHBP@xany?$AA@ 0000000180026a38     serialport.obj
 0002:00007a40       ??_C@_05HDEOENJK@hupcl?$AA@ 0000000180026a40     serialport.obj
 0002:00007a48       ??_C@_0BA@MGPPHKHC@platformOptions?$AA@ 0000000180026a48     serialport.obj
 0002:00007a58       ??_C@_0N@JJGGGCOE@dataCallback?$AA@ 0000000180026a58     serialport.obj
 0002:00007a68       ??_C@_0BF@MMKFENOF@disconnectedCallback?$AA@ 0000000180026a68     serialport.obj
 0002:00007a80       ??_C@_0O@GBPNIDIK@errorCallback?$AA@ 0000000180026a80     serialport.obj
 0002:00007a90       ??_C@_0BO@BHDHAAIC@First?5argument?5must?5be?5an?5int?$AA@ 0000000180026a90     serialport.obj
 0002:00007ab0       ??_C@_0CB@CADFKPNI@Second?5argument?5must?5be?5a?5buffer@ 0000000180026ab0     serialport.obj
 0002:00007ad8       ??_C@_0DJ@LHGJDFBA@There?8s?5no?5write?5queue?5for?5that?5@ 0000000180026ad8     serialport.obj
 0002:00007b18       ??_C@_0DP@OOBEEJFH@There?8s?5no?5write?5queue?5for?5that?5@ 0000000180026b18     serialport.obj
 0002:00007b58       ??_C@_0CD@FDCLPLBL@Second?5argument?5must?5be?5a?5functi@ 0000000180026b58     serialport.obj
 0002:00007b80       ??_C@_0CC@LODBDECI@First?5argument?5must?5be?5a?5functio@ 0000000180026b80     serialport.obj
 0002:00007ba8       ??_C@_07DBPBBGJJ@comName?$AA@ 0000000180026ba8     serialport.obj
 0002:00007bb0       ??_C@_0N@KCKFIEGL@manufacturer?$AA@ 0000000180026bb0     serialport.obj
 0002:00007bc0       ??_C@_0N@OMOHFKCJ@serialNumber?$AA@ 0000000180026bc0     serialport.obj
 0002:00007bd0       ??_C@_05HGPICCMB@pnpId?$AA@ 0000000180026bd0     serialport.obj
 0002:00007bd8       ??_C@_0L@BOGINKLP@locationId?$AA@ 0000000180026bd8     serialport.obj
 0002:00007be8       ??_C@_08OOCGBFEC@vendorId?$AA@ 0000000180026be8     serialport.obj
 0002:00007bf8       ??_C@_09FNKBJNGL@productId?$AA@ 0000000180026bf8     serialport.obj
 0002:00007c04       ??_C@_03JOOIBBDJ@brk?$AA@  0000000180026c04     serialport.obj
 0002:00007c08       ??_C@_03EIGHKCEN@rts?$AA@  0000000180026c08     serialport.obj
 0002:00007c0c       ??_C@_03KAMCJCLH@cts?$AA@  0000000180026c0c     serialport.obj
 0002:00007c10       ??_C@_03CEAOJLEP@dtr?$AA@  0000000180026c10     serialport.obj
 0002:00007c14       ??_C@_03CBEBINMK@dsr?$AA@  0000000180026c14     serialport.obj
 0002:00007c18       ??_C@_04CGFJFPFD@none?$AA@ 0000000180026c18     serialport.obj
 0002:00007c20       ??_C@_04JDDJEAHN@even?$AA@ 0000000180026c20     serialport.obj
 0002:00007c28       ??_C@_04KJJCFCK@mark?$AA@  0000000180026c28     serialport.obj
 0002:00007c30       ??_C@_03PDLBAKOJ@odd?$AA@  0000000180026c30     serialport.obj
 0002:00007c34       ??_C@_05OLNILLAB@space?$AA@ 0000000180026c34     serialport.obj
 0002:00007c3c       ??_C@_03KCHOJKKI@set?$AA@  0000000180026c3c     serialport.obj
 0002:00007c40       ??_C@_04PMOCAHAA@open?$AA@ 0000000180026c40     serialport.obj
 0002:00007c48       ??_C@_06HDLLMMEJ@update?$AA@ 0000000180026c48     serialport.obj
 0002:00007c50       ??_C@_05NGFEDHGN@write?$AA@ 0000000180026c50     serialport.obj
 0002:00007c58       ??_C@_05LBOHBHFK@close?$AA@ 0000000180026c58     serialport.obj
 0002:00007c60       ??_C@_04DONFEANM@list?$AA@ 0000000180026c60     serialport.obj
 0002:00007c68       ??_C@_05GLCAEPFP@flush?$AA@ 0000000180026c68     serialport.obj
 0002:00007c70       ??_C@_05GBKIIGFP@drain?$AA@ 0000000180026c70     serialport.obj
 0002:00007c78       ??_C@_0BG@BKNJDEGG@?4?4?2src?2serialport?4cpp?$AA@ 0000000180026c78     serialport.obj
 0002:00007c90       ??_C@_0L@BMBGKDA@serialport?$AA@ 0000000180026c90     serialport.obj
 0002:00007ca0       ??_C@_0BI@CFPLBAOH@invalid?5string?5position?$AA@ 0000000180026ca0     serialport.obj
 0002:00007cc0       ??_C@_1GA@PFOOBIAG@?$AAl?$AAe?$AAn?$AAg?$AAt?$AAh?$AA?5?$AA?$DM?$AA?$DN?$AA?5?$AAi?$AAm?$AAp?$AA?3?$AA?3?$AAk?$AAM?$AAa?$AAx?$AAL?$AAe?$AAn?$AAg?$AAt?$AAh?$AA?5?$AA?$CG?$AA?$CG?$AA?5?$AA?$CC?$AAt?$AAo@ 0000000180026cc0     serialport_win.obj
 0002:00007d20       ??_C@_0BD@BLPNGLIH@?$CFs?3?5File?5not?5found?$AA@ 0000000180026d20     serialport_win.obj
 0002:00007d38       ??_C@_0BD@GPOKPNCK@?$CFs?3?5Invalid?5handle?$AA@ 0000000180026d38     serialport_win.obj
 0002:00007d50       ??_C@_0BC@KPJPBKFJ@?$CFs?3?5Access?5denied?$AA@ 0000000180026d50     serialport_win.obj
 0002:00007d68       ??_C@_0BG@FFOFPOPJ@?$CFs?3?5operation?5aborted?$AA@ 0000000180026d68     serialport_win.obj
 0002:00007d80       ??_C@_0BK@JFNDFHEK@?$CFs?3?5Unknown?5error?5code?5?$CFd?$AA@ 0000000180026d80     serialport_win.obj
 0002:00007d9c       ??_C@_04GBDIODIA@?2?2?4?2?$AA@ 0000000180026d9c     serialport_win.obj
 0002:00007da8       ??_C@_0L@GJHAJNIB@Opening?5?$CFs?$AA@ 0000000180026da8     serialport_win.obj
 0002:00007db8       ??_C@_0L@PFAJMNOF@9600?0n?08?01?$AA@ 0000000180026db8     serialport_win.obj
 0002:00007dc8       ??_C@_0N@NLLPHAJM@BuildCommDCB?$AA@ 0000000180026dc8     serialport_win.obj
 0002:00007dd8       ??_C@_0N@KDLJEBGM@SetCommState?$AA@ 0000000180026dd8     serialport_win.obj
 0002:00007de8       ??_C@_0BA@NHFMBHEE@SetCommTimeouts?$AA@ 0000000180026de8     serialport_win.obj
 0002:00007df8       ??_C@_0CB@IFPFGDDE@Reading?5from?5COM?5port?5?$CIReadFile?$CJ@ 0000000180026df8     serialport_win.obj
 0002:00007e20       ??_C@_0CM@KIDAHMDM@Reading?5from?5COM?5port?5?$CIGetOverla@ 0000000180026e20     serialport_win.obj
 0002:00007e50       ??_C@_0CA@DEKDENAJ@Writing?5to?5COM?5port?5?$CIWriteFile?$CJ?$AA@ 0000000180026e50     serialport_win.obj
 0002:00007e70       ??_C@_0CK@BGPOGOML@Writing?5to?5COM?5port?5?$CIGetOverlapp@ 0000000180026e70     serialport_win.obj
 0002:00007ea0       ??_C@_0N@MDJJJHMB@kernel32?4dll?$AA@ 0000000180026ea0     serialport_win.obj
 0002:00007eb0       ??_C@_0L@COJLGOAG@CancelIoEx?$AA@ 0000000180026eb0     serialport_win.obj
 0002:00007ec0       ??_C@_0BD@FABABKML@closing?5connection?$AA@ 0000000180026ec0     serialport_win.obj
 0002:00007ee0       ??_C@_1HC@HPPDILKB@?$AAw?$AAi?$AAn?$AAm?$AAg?$AAm?$AAt?$AAs?$AA?3?$AA?$HL?$AAi?$AAm?$AAp?$AAe?$AAr?$AAs?$AAo?$AAn?$AAa?$AAt?$AAi?$AAo?$AAn?$AAL?$AAe?$AAv?$AAe?$AAl?$AA?$DN?$AAi?$AAm?$AAp@ 0000000180026ee0     serialport_win.obj
 0002:00007f58       ??_C@_1DM@IDNHBLIN@?$AAS?$AAe?$AAl?$AAe?$AAc?$AAt?$AA?5?$AA?$CK?$AA?5?$AAf?$AAr?$AAo?$AAm?$AA?5?$AAW?$AAi?$AAn?$AA3?$AA2?$AA_?$AAP?$AAn?$AAP?$AAE?$AAn?$AAt?$AAi?$AAt?$AAy?$AA?$AA@ 0000000180026f58     serialport_win.obj
 0002:00007f98       ??_C@_1BO@OMPDANMO@?$AA?4?$AAE?$AAx?$AAe?$AAc?$AAQ?$AAu?$AAe?$AAr?$AAy?$AA?$CI?$AA?$CF?$AAS?$AA?$CJ?$AA?$AA@ 0000000180026f98     serialport_win.obj
 0002:00007fb8       ??_C@_15HKBJCNIM@?$AA?$CF?$AAo?$AA?$AA@ 0000000180026fb8     serialport_win.obj
 0002:00007fc0       ??_C@_1M@FBIKLNPF@?$AA?4?$AAN?$AAa?$AAm?$AAe?$AA?$AA@ 0000000180026fc0     serialport_win.obj
 0002:00007fcc       ??_C@_15GANGMFKL@?$AA?$CF?$AAs?$AA?$AA@ 0000000180026fcc     serialport_win.obj
 0002:00007fd8       ??_C@_1BK@HLEKJOLB@?$AA?4?$AAP?$AAn?$AAP?$AAD?$AAe?$AAv?$AAi?$AAc?$AAe?$AAI?$AAD?$AA?$AA@ 0000000180026fd8     serialport_win.obj
 0002:00007ff4       ??_C@_04HPNMGAEB@?$CICOM?$AA@ 0000000180026ff4     serialport_win.obj
 0002:00008000       ??_C@_1BM@OHCJMGPI@?$AA?4?$AAM?$AAa?$AAn?$AAu?$AAf?$AAa?$AAc?$AAt?$AAu?$AAr?$AAe?$AAr?$AA?$AA@ 0000000180027000     serialport_win.obj
 0002:0000801c       ??_C@_02HCKGKOFO@?$CI?$CJ?$AA@ 000000018002701c     serialport_win.obj
 0002:00008020       ??_C@_05BIOCGAFO@COM?$CFu?$AA@ 0000000180027020     serialport_win.obj
 0002:00008028       ??_C@_0BE@IFGABDNF@flushing?5connection?$AA@ 0000000180027028     serialport_win.obj
 0002:00008040       ??_C@_0BE@JLHGOMBL@draining?5connection?$AA@ 0000000180027040     serialport_win.obj
 0002:00008058       ??_C@_0BB@MOGOBHAF@list?$DMT?$DO?5too?5long?$AA@ 0000000180027058     serialport_win.obj
 0002:00008070       ??_C@_1BO@HDBDBCJG@?$AAC?$AAr?$AAe?$AAa?$AAt?$AAe?$AAO?$AAb?$AAj?$AAe?$AAc?$AAt?$AAE?$AAx?$AA?$AA@ 0000000180027070     disphelper.obj
 0002:00008090       ??_C@_1BI@DMFBAPEL@?$AAG?$AAe?$AAt?$AAO?$AAb?$AAj?$AAe?$AAc?$AAt?$AAE?$AAx?$AA?$AA@ 0000000180027090     disphelper.obj
 0002:000080a8       ??_C@_1BE@MLEHPFBH@?$AAG?$AAe?$AAt?$AAO?$AAb?$AAj?$AAe?$AAc?$AAt?$AA?$AA@ 00000001800270a8     disphelper.obj
 0002:000080c0       ??_C@_1BC@EOKMJIGM@?$AAG?$AAe?$AAt?$AAV?$AAa?$AAl?$AAu?$AAe?$AA?$AA@ 00000001800270c0     disphelper.obj
 0002:000080d8       ??_C@_1BI@PDIILNOC@?$AAI?$AAn?$AAv?$AAo?$AAk?$AAe?$AAA?$AAr?$AAr?$AAa?$AAy?$AA?$AA@ 00000001800270d8     disphelper.obj
 0002:000080f0       ??_C@_1BE@NJPKCBAP@?$AAG?$AAe?$AAt?$AAV?$AAa?$AAl?$AAu?$AAe?$AAV?$AA?$AA@ 00000001800270f0     disphelper.obj
 0002:00008108       ??_C@_1BA@HHECJPLE@?$AAI?$AAn?$AAv?$AAo?$AAk?$AAe?$AAV?$AA?$AA@ 0000000180027108     disphelper.obj
 0002:00008118       ??_C@_1CG@GNAEBGGB@?$AAT?$AAr?$AAa?$AAv?$AAe?$AAr?$AAs?$AAe?$AAS?$AAu?$AAb?$AAO?$AAb?$AAj?$AAe?$AAc?$AAt?$AAs?$AA?$AA@ 0000000180027118     disphelper.obj
 0002:00008140       ??_C@_1CA@CLNDPHIN@?$AAI?$AAn?$AAt?$AAe?$AAr?$AAn?$AAa?$AAl?$AAI?$AAn?$AAv?$AAo?$AAk?$AAe?$AAV?$AA?$AA@ 0000000180027140     disphelper.obj
 0002:00008160       ??_C@_1CI@INCHDFDD@?$AAC?$AAr?$AAe?$AAa?$AAt?$AAe?$AAA?$AAr?$AAg?$AAu?$AAm?$AAe?$AAn?$AAt?$AAA?$AAr?$AAr?$AAa?$AAy?$AA?$AA@ 0000000180027160     disphelper.obj
 0002:00008188       ??_C@_1BG@MNFFKJJK@?$AAE?$AAn?$AAu?$AAm?$AAB?$AAe?$AAg?$AAi?$AAn?$AAV?$AA?$AA@ 0000000180027188     disphelper.obj
 0002:000081a0       ??_C@_1BC@IDLEPMAN@?$AA_?$AAN?$AAe?$AAw?$AAE?$AAn?$AAu?$AAm?$AA?$AA@ 00000001800271a0     disphelper.obj
 0002:000081b8       ??_C@_1BG@BDNAMAIA@?$AAE?$AAn?$AAu?$AAm?$AAe?$AAr?$AAa?$AAt?$AAo?$AAr?$AA?$AA@ 00000001800271b8     disphelper.obj
 0002:000081d0       ??_C@_1BO@IAFBFOJB@?$AAE?$AAn?$AAu?$AAm?$AAN?$AAe?$AAx?$AAt?$AAO?$AAb?$AAj?$AAe?$AAc?$AAt?$AA?$AA@ 00000001800271d0     disphelper.obj
 0002:000081f0       ??_C@_1BE@ELBMMOIE@?$AAE?$AAn?$AAu?$AAm?$AAB?$AAe?$AAg?$AAi?$AAn?$AA?$AA@ 00000001800271f0     disphelper.obj
 0002:00008210       ??_C@_1EA@IPGDCEJG@?$AAN?$AAo?$AA?5?$AAe?$AAr?$AAr?$AAo?$AAr?$AA?5?$AAi?$AAn?$AAf?$AAo?$AAr?$AAm?$AAa?$AAt?$AAi?$AAo?$AAn?$AA?5?$AAa?$AAv?$AAa?$AAi?$AAl?$AAa?$AAb?$AAl?$AAe?$AA?4?$AA?$AA@ 0000000180027210     disphelper.obj
 0002:00008250       ??_C@_1CI@EMFHHJCI@?$AAI?$AAD?$AAi?$AAs?$AAp?$AAa?$AAt?$AAc?$AAh?$AA?5?$AAI?$AAn?$AAt?$AAe?$AAr?$AAf?$AAa?$AAc?$AAe?$AA?$AA@ 0000000180027250     disphelper.obj
 0002:00008278       ??_C@_1BI@JBDNBBGL@?$AAA?$AAp?$AAp?$AAl?$AAi?$AAc?$AAa?$AAt?$AAi?$AAo?$AAn?$AA?$AA@ 0000000180027278     disphelper.obj
 0002:00008290       ??_C@_1CA@NMPDLHEN@?$AAO?$AAb?$AAj?$AAe?$AAc?$AAt?$AA?5?$AAr?$AAe?$AAq?$AAu?$AAi?$AAr?$AAe?$AAd?$AA?$AA@ 0000000180027290     disphelper.obj
 0002:000082b0       ??_C@_1GK@OIIAPLCE@?$AAO?$AAb?$AAj?$AAe?$AAc?$AAt?$AA?5?$AAd?$AAo?$AAe?$AAs?$AAn?$AA?8?$AAt?$AA?5?$AAs?$AAu?$AAp?$AAp?$AAo?$AAr?$AAt?$AA?5?$AAt?$AAh?$AAi?$AAs?$AA?5?$AAp?$AAr?$AAo?$AAp@ 00000001800272b0     disphelper.obj
 0002:00008320       ??_C@_1FA@BOGLMBCH@?$AAT?$AAy?$AAp?$AAe?$AA?5?$AAm?$AAi?$AAs?$AAm?$AAa?$AAt?$AAc?$AAh?$AA?3?$AA?5?$AA?8?$AA?$CF?$AAs?$AA?8?$AA?4?$AA?5?$AAA?$AAr?$AAg?$AAu?$AAm?$AAe?$AAn?$AAt?$AA?5?$AAI?$AAn@ 0000000180027320     disphelper.obj
 0002:00008370       ??_C@_1CM@DGABBFHF@?$AAU?$AAn?$AAk?$AAn?$AAo?$AAw?$AAn?$AA?5?$AAr?$AAu?$AAn?$AAt?$AAi?$AAm?$AAe?$AA?5?$AAe?$AAr?$AAr?$AAo?$AAr?$AA?$AA@ 0000000180027370     disphelper.obj
 0002:000083a0       ??_C@_1KM@HFFPFOI@?$AAM?$AAe?$AAm?$AAb?$AAe?$AAr?$AA?3?$AA?7?$AA?5?$AA?5?$AA?$CF?$AAs?$AA?$AN?$AA?6?$AAF?$AAu?$AAn?$AAc?$AAt?$AAi?$AAo?$AAn?$AA?3?$AA?7?$AA?5?$AA?5?$AA?$CF?$AAs?$AA?7?$AA?7?$AA?$AN?$AA?6@ 00000001800273a0     disphelper.obj
 0002:000084f0       ??_C@_03GJALCMIF@COM?$AA@  00000001800274f0     enumser.obj
 0002:000084f8       ??_C@_0BD@OLBABOEK@vector?$DMT?$DO?5too?5long?$AA@ 00000001800274f8     enumser.obj
 0002:00008948       __real@3fe0000000000000    0000000180027948     disphelper.obj
 0002:00008950       __real@3ff6666666666666    0000000180027950     serialport.obj
 0002:00008958       __real@3ff999999999999a    0000000180027958     serialport.obj
 0002:00008960       __real@4000000000000000    0000000180027960     serialport.obj
 0002:00008968       __real@40d8f84000000000    0000000180027968     disphelper.obj
 0002:00008970       __real@40f5180000000000    0000000180027970     disphelper.obj
 0002:00008978       __real@43e0000000000000    0000000180027978     disphelper.obj
 0002:00008980       __real@c0faa95000000000    0000000180027980     disphelper.obj
 0002:00008af0       __real@3ff0000000000000    0000000180027af0     LIBCMT:ceil.obj
 0002:00008af8       __real@bff0000000000000    0000000180027af8     LIBCMT:floor.obj
 0002:00008b00       _load_config_used          0000000180027b00     LIBCMT:loadcfg.obj
 0002:00008c00       ??_R1A@?0A@EA@exception@std@@8 0000000180027c00     libcpmt:xthrow.obj
 0002:00008c28       ??_R3exception@std@@8      0000000180027c28     libcpmt:xthrow.obj
 0002:00008c40       ??_R2exception@std@@8      0000000180027c40     libcpmt:xthrow.obj
 0002:00008c50       ??_R4bad_alloc@std@@6B@    0000000180027c50     libcpmt:xthrow.obj
 0002:00008c78       ??_R3bad_alloc@std@@8      0000000180027c78     libcpmt:xthrow.obj
 0002:00008c90       ??_R2bad_alloc@std@@8      0000000180027c90     libcpmt:xthrow.obj
 0002:00008ca8       ??_R1A@?0A@EA@bad_alloc@std@@8 0000000180027ca8     libcpmt:xthrow.obj
 0002:00008cd0       ??_R4logic_error@std@@6B@  0000000180027cd0     libcpmt:xthrow.obj
 0002:00008cf8       ??_R3logic_error@std@@8    0000000180027cf8     libcpmt:xthrow.obj
 0002:00008d10       ??_R2logic_error@std@@8    0000000180027d10     libcpmt:xthrow.obj
 0002:00008d28       ??_R1A@?0A@EA@logic_error@std@@8 0000000180027d28     libcpmt:xthrow.obj
 0002:00008d50       ??_R4length_error@std@@6B@ 0000000180027d50     libcpmt:xthrow.obj
 0002:00008d78       ??_R3length_error@std@@8   0000000180027d78     libcpmt:xthrow.obj
 0002:00008d90       ??_R2length_error@std@@8   0000000180027d90     libcpmt:xthrow.obj
 0002:00008db0       ??_R1A@?0A@EA@length_error@std@@8 0000000180027db0     libcpmt:xthrow.obj
 0002:00008dd8       ??_R4out_of_range@std@@6B@ 0000000180027dd8     libcpmt:xthrow.obj
 0002:00008e00       ??_R3out_of_range@std@@8   0000000180027e00     libcpmt:xthrow.obj
 0002:00008e18       ??_R2out_of_range@std@@8   0000000180027e18     libcpmt:xthrow.obj
 0002:00008e38       ??_R1A@?0A@EA@out_of_range@std@@8 0000000180027e38     libcpmt:xthrow.obj
 0002:00008e60       ??_R4type_info@@6B@        0000000180027e60     LIBCMT:typinfo.obj
 0002:00008e88       ??_R3type_info@@8          0000000180027e88     LIBCMT:typinfo.obj
 0002:00008ea0       ??_R2type_info@@8          0000000180027ea0     LIBCMT:typinfo.obj
 0002:00008eb0       ??_R1A@?0A@EA@type_info@@8 0000000180027eb0     LIBCMT:typinfo.obj
 0002:00008ed8       ??_R4exception@std@@6B@    0000000180027ed8     LIBCMT:stdexcpt.obj
 0002:00008f00       ??_R4bad_exception@std@@6B@ 0000000180027f00     LIBCMT:frame.obj
 0002:00008f28       ??_R3bad_exception@std@@8  0000000180027f28     LIBCMT:frame.obj
 0002:00008f40       ??_R2bad_exception@std@@8  0000000180027f40     LIBCMT:frame.obj
 0002:00008f58       ??_R1A@?0A@EA@bad_exception@std@@8 0000000180027f58     LIBCMT:frame.obj
 0002:00008f80       __rtc_iaa                  0000000180027f80     LIBCMT:initsect.obj
 0002:00008f88       __rtc_izz                  0000000180027f88     LIBCMT:initsect.obj
 0002:00008f90       __rtc_taa                  0000000180027f90     LIBCMT:initsect.obj
 0002:00008f98       __rtc_tzz                  0000000180027f98     LIBCMT:initsect.obj
 0002:0000b4b8       _TI2?AVbad_alloc@std@@     000000018002a4b8     libcpmt:xthrow.obj
 0002:0000b4d8       _CTA2?AVbad_alloc@std@@    000000018002a4d8     libcpmt:xthrow.obj
 0002:0000b4f0       _CT??_R0?AVbad_alloc@std@@@8??0bad_alloc@std@@QEAA@AEBV01@@Z24 000000018002a4f0     libcpmt:xthrow.obj
 0002:0000b518       _CT??_R0?AVexception@std@@@8??0exception@std@@QEAA@AEBV01@@Z24 000000018002a518     libcpmt:xthrow.obj
 0002:0000b540       _CT??_R0?AVlogic_error@std@@@8??0logic_error@std@@QEAA@AEBV01@@Z24 000000018002a540     libcpmt:xthrow.obj
 0002:0000b568       _TI3?AVlength_error@std@@  000000018002a568     libcpmt:xthrow.obj
 0002:0000b588       _CTA3?AVlength_error@std@@ 000000018002a588     libcpmt:xthrow.obj
 0002:0000b5a8       _CT??_R0?AVlength_error@std@@@8??0length_error@std@@QEAA@AEBV01@@Z24 000000018002a5a8     libcpmt:xthrow.obj
 0002:0000b5d0       _TI3?AVout_of_range@std@@  000000018002a5d0     libcpmt:xthrow.obj
 0002:0000b5f0       _CTA3?AVout_of_range@std@@ 000000018002a5f0     libcpmt:xthrow.obj
 0002:0000b610       _CT??_R0?AVout_of_range@std@@@8??0out_of_range@std@@QEAA@AEBV01@@Z24 000000018002a610     libcpmt:xthrow.obj
 0002:0000b638       _TI2?AVbad_exception@std@@ 000000018002a638     LIBCMT:frame.obj
 0002:0000b658       _CTA2?AVbad_exception@std@@ 000000018002a658     LIBCMT:frame.obj
 0002:0000b670       _CT??_R0?AVbad_exception@std@@@8??0bad_exception@std@@QEAA@AEBV01@@Z24 000000018002a670     LIBCMT:frame.obj
 0002:0000b6f8       __IMPORT_DESCRIPTOR_KERNEL32 000000018002a6f8     kernel32:KERNEL32.dll
 0002:0000b70c       __IMPORT_DESCRIPTOR_USER32 000000018002a70c     user32:USER32.dll
 0002:0000b720       __IMPORT_DESCRIPTOR_ole32  000000018002a720     ole32:ole32.dll
 0002:0000b734       __IMPORT_DESCRIPTOR_OLEAUT32 000000018002a734     oleaut32:OLEAUT32.dll
 0002:0000b748       __IMPORT_DESCRIPTOR_node   000000018002a748     node:node.dll
 0002:0000b75c       __NULL_IMPORT_DESCRIPTOR   000000018002a75c     kernel32:KERNEL32.dll
 0003:00000070       _fltused                   000000018002d070     LIBCMT:fpinit.obj
 0003:00000074       _ldused                    000000018002d074     LIBCMT:fpinit.obj
 0003:00000078       __security_cookie          000000018002d078     LIBCMT:gs_cookie.obj
 0003:00000080       __security_cookie_complement 000000018002d080     LIBCMT:gs_cookie.obj
 0003:00000088       __isa_available            000000018002d088     LIBCMT:cpu_disp.obj
 0003:0000008c       __isa_enabled              000000018002d08c     LIBCMT:cpu_disp.obj
 0003:00000200       __abort_behavior           000000018002d200     LIBCMT:abort.obj
 0003:00000210       _iob                       000000018002d210     LIBCMT:_file.obj
 0003:000005d8       __nullstring               000000018002d5d8     LIBCMT:output.obj
 0003:000005e0       __wnullstring              000000018002d5e0     LIBCMT:output.obj
 0003:000005f0       __flsindex                 000000018002d5f0     LIBCMT:tidtable.obj
 0003:00000600       _timezone                  000000018002d600     LIBCMT:timeset.obj
 0003:00000604       _daylight                  000000018002d604     LIBCMT:timeset.obj
 0003:00000608       _dstbias                   000000018002d608     LIBCMT:timeset.obj
 0003:00000690       _tzname                    000000018002d690     LIBCMT:timeset.obj
 0003:000006c0       _days                      000000018002d6c0     LIBCMT:days.obj
 0003:000006f8       _lpdays                    000000018002d6f8     LIBCMT:days.obj
 0003:00000730       _mbctype                   000000018002d730     LIBCMT:mbctype.obj
 0003:00000840       _mbcasemap                 000000018002d840     LIBCMT:mbctype.obj
 0003:00000940       __initialmbcinfo           000000018002d940     LIBCMT:mbctype.obj
 0003:00000c60       __ptmbcinfo                000000018002dc60     LIBCMT:mbctype.obj
 0003:00000c68       __mb_cur_max               000000018002dc68     LIBCMT:nlsdata.obj
 0003:00000c6c       __wclocalestr              000000018002dc6c     LIBCMT:nlsdata.obj
 0003:00000c70       __lc_time_c                000000018002dc70     LIBCMT:nlsdata.obj
 0003:00000f30       __ptlocinfo                000000018002df30     LIBCMT:nlsdata.obj
 0003:00000f40       __initiallocinfo           000000018002df40     LIBCMT:nlsdata.obj
 0003:00001098       __initiallocalestructinfo  000000018002e098     LIBCMT:nlsdata.obj
 0003:000010a8       __globallocalestatus       000000018002e0a8     LIBCMT:glstatus.obj
 0003:000010c0       __badioinfo                000000018002e0c0     LIBCMT:ioinit.obj
 0003:00001120       _cfltcvt_tab               000000018002e120     LIBCMT:cmiscdat.obj
 0003:00001580       _matherr_flag              000000018002e580     LIBCMT:matherr.obj
 0003:00001590       __lconv_c                  000000018002e590     LIBCMT:lconv.obj
 0003:00001628       __lconv_static_decimal     000000018002e628     LIBCMT:lconv.obj
 0003:0000162c       __lconv_static_W_decimal   000000018002e62c     LIBCMT:lconv.obj
 0003:00001630       __lconv                    000000018002e630     LIBCMT:lconv.obj
 0003:00001638       _pctype                    000000018002e638     LIBCMT:ctype.obj
 0003:00001640       _pwctype                   000000018002e640     LIBCMT:ctype.obj
 0003:00001650       _d_inf                     000000018002e650     LIBCMT:util.obj
 0003:00001658       _d_ind                     000000018002e658     LIBCMT:util.obj
 0003:00001660       _d_max                     000000018002e660     LIBCMT:util.obj
 0003:00001668       _d_min                     000000018002e668     LIBCMT:util.obj
 0003:00001670       _d_mzero                   000000018002e670     LIBCMT:util.obj
 0003:00001680       _HUGE                      000000018002e680     LIBCMT:huge.obj
 0003:000016b8       _confh                     000000018002e6b8     LIBCMT:initcon.obj
 0003:000016c0       _pow10pos                  000000018002e6c0     LIBCMT:constpow.obj
 0003:00001820       _pow10neg                  000000018002e820     LIBCMT:constpow.obj
 0003:000019c8       ??_R0?AVbad_alloc@std@@@8  000000018002e9c8     libcpmt:xthrow.obj
 0003:000019f0       ??_R0?AVexception@std@@@8  000000018002e9f0     libcpmt:xthrow.obj
 0003:00001a18       ??_R0?AVlogic_error@std@@@8 000000018002ea18     libcpmt:xthrow.obj
 0003:00001a40       ??_R0?AVlength_error@std@@@8 000000018002ea40     libcpmt:xthrow.obj
 0003:00001a68       ??_R0?AVout_of_range@std@@@8 000000018002ea68     libcpmt:xthrow.obj
 0003:00001a90       ??_R0?AVtype_info@@@8      000000018002ea90     LIBCMT:typinfo.obj
 0003:00001ab0       ??_R0?AVbad_exception@std@@@8 000000018002eab0     LIBCMT:frame.obj
 0003:00001af0       _aenvptr                   000000018002eaf0     LIBCMT:dllcrt0.obj
 0003:00001af8       _wenvptr                   000000018002eaf8     LIBCMT:dllcrt0.obj
 0003:00001b00       __fastflag                 000000018002eb00     LIBCMT:fpinit.obj
 0003:00002084       __favor                    000000018002f084     LIBCMT:cpu_disp.obj
 0003:00002088       ?_pnhHeap@@3P6AH_K@ZEA     000000018002f088     LIBCMT:handler.obj
 0003:00002090       _C_Exit_Done               000000018002f090     LIBCMT:crt0dat.obj
 0003:00002094       __argc                     000000018002f094     LIBCMT:crt0dat.obj
 0003:00002098       __argv                     000000018002f098     LIBCMT:crt0dat.obj
 0003:000020a0       __wargv                    000000018002f0a0     LIBCMT:crt0dat.obj
 0003:000020a8       _environ                   000000018002f0a8     LIBCMT:crt0dat.obj
 0003:000020b0       _wenviron                  000000018002f0b0     LIBCMT:crt0dat.obj
 0003:000020b8       _pgmptr                    000000018002f0b8     LIBCMT:crt0dat.obj
 0003:000020c0       _wpgmptr                   000000018002f0c0     LIBCMT:crt0dat.obj
 0003:000020c8       _umaskval                  000000018002f0c8     LIBCMT:crt0dat.obj
 0003:000020cc       _exitflag                  000000018002f0cc     LIBCMT:crt0dat.obj
 0003:000020d0       _C_Termination_Done        000000018002f0d0     LIBCMT:crt0dat.obj
 0003:000020d8       __winitenv                 000000018002f0d8     LIBCMT:crt0dat.obj
 0003:000020e0       __initenv                  000000018002f0e0     LIBCMT:crt0dat.obj
 0003:000020f0       __app_type                 000000018002f0f0     LIBCMT:crt0msg.obj
 0003:00002728       _newmode                   000000018002f728     LIBCMT:_newmode.obj
 0003:00002730       _crtheap                   000000018002f730     LIBCMT:heapinit.obj
 0003:00002738       __pInvalidArgHandler       000000018002f738     LIBCMT:invarg.obj
 0003:00002740       __error_mode               000000018002f740     LIBCMT:errmode.obj
 0003:00002744       _cflush                    000000018002f744     LIBCMT:_file.obj
 0003:00002798       _maxwait                   000000018002f798     LIBCMT:crtheap.obj
 0003:000027a0       __pPurecall                000000018002f7a0     LIBCMT:inithelp.obj
 0003:00002870       __mbcodepage               000000018002f870     LIBCMT:mbctype.obj
 0003:00002874       __ismbcodepage             000000018002f874     LIBCMT:mbctype.obj
 0003:00002878       __mbulinfo                 000000018002f878     LIBCMT:mbctype.obj
 0003:00002888       __mblocalename             000000018002f888     LIBCMT:mbctype.obj
 0003:00002894       __locale_changed           000000018002f894     LIBCMT:wsetloca.obj
 0003:000028a0       __pioinfo                  000000018002f8a0     LIBCMT:ioinit.obj
 0003:00002ba8       ?g_OutOfMemoryExceptionCallback@@3P6APEAXXZEA 000000018002fba8     LIBCMT:frame.obj
 0003:00002bb0       ?__pInconsistency@@3P6AXXZEA 000000018002fbb0     LIBCMT:hooks.obj
 0003:00002e08       _stdbuf                    000000018002fe08     LIBCMT:_sftbuf.obj
 0003:00002e28       __lconv_static_null        000000018002fe28     LIBCMT:lconv.obj
 0003:00002e2c       __lconv_static_W_null      000000018002fe2c     LIBCMT:lconv.obj
 0003:00002e30       ?m_pGetParameter@UnDecorator@@0P6APEADJ@ZEA 000000018002fe30     LIBCMT:undname.obj
 0003:00002e38       ?pArgList@UnDecorator@@0PEAVReplicator@@EA 000000018002fe38     LIBCMT:undname.obj
 0003:00002e40       ?pZNameList@UnDecorator@@0PEAVReplicator@@EA 000000018002fe40     LIBCMT:undname.obj
 0003:00002e48       ?pTemplateArgList@UnDecorator@@0PEAVReplicator@@EA 000000018002fe48     LIBCMT:undname.obj
 0003:00002e50       ?gName@UnDecorator@@0PEBDEB 000000018002fe50     LIBCMT:undname.obj
 0003:00002e58       ?name@UnDecorator@@0PEBDEB 000000018002fe58     LIBCMT:undname.obj
 0003:00002e60       ?outputString@UnDecorator@@0PEADEA 000000018002fe60     LIBCMT:undname.obj
 0003:00002e68       ?maxStringLength@UnDecorator@@0HA 000000018002fe68     LIBCMT:undname.obj
 0003:00002e6c       ?disableFlags@UnDecorator@@0KA 000000018002fe6c     LIBCMT:undname.obj
 0003:00002e70       ?fExplicitTemplateParams@UnDecorator@@0_NA 000000018002fe70     LIBCMT:undname.obj
 0003:00002e71       ?fGetTemplateArgumentList@UnDecorator@@0_NA 000000018002fe71     LIBCMT:undname.obj
 0003:00002ea0       _outputformat              000000018002fea0     LIBCMT:outputformat.obj
 0003:00002eb8       ?bufferSize@@3HA           000000018002feb8     serialport_win.obj
 0003:00002ed0       ?g_closingHandles@@3V?$list@HV?$allocator@H@std@@@std@@A 000000018002fed0     serialport_win.obj
 0003:00002f08       ?id@?$num_put@_WV?$back_insert_iterator@V?$basic_string@_WU?$char_traits@_W@std@@V?$allocator@_W@2@@std@@@std@@@std@@2V0locale@2@A 000000018002ff08     serialport.obj
 0003:00002f10       ?_System_object@?$_Error_objects@H@std@@2V_System_error_category@2@A 000000018002ff10     serialport.obj
 0003:00002f18       ?id@?$numpunct@_W@std@@2V0locale@2@A 000000018002ff18     serialport.obj
 0003:00002f20       ?id@?$num_put@DV?$back_insert_iterator@V?$basic_string@DU?$char_traits@D@std@@V?$allocator@D@2@@std@@@std@@@std@@2V0locale@2@A 000000018002ff20     serialport.obj
 0003:00002f28       ?_Iostream_object@?$_Error_objects@H@std@@2V_Iostream_error_category@2@A 000000018002ff28     serialport.obj
 0003:00002f30       ?_Generic_object@?$_Error_objects@H@std@@2V_Generic_error_category@2@A 000000018002ff30     serialport.obj
 0003:00002f38       ?id@?$numpunct@D@std@@2V0locale@2@A 000000018002ff38     serialport.obj
 0003:00002f40       _debugger_hook_dummy       000000018002ff40     <common>
 0003:00002f60       encodedKERNEL32Functions   000000018002ff60     <common>
 0003:00003068       _nhandle                   0000000180030068     <common>
 0003:00003070       __piob                     0000000180030070     <common>
 0003:00003078       _nstream                   0000000180030078     <common>
 0003:00003080       _bufin                     0000000180030080     <common>
 0003:00004080       __dyn_tls_init_callback    0000000180031080     <common>
 0003:00004088       __onexitend                0000000180031088     <common>
 0003:00004090       __onexitbegin              0000000180031090     <common>
 0003:00004098       __mbctype_initialized      0000000180031098     <common>
 0003:0000409c       __env_initialized          000000018003109c     <common>
 0003:000040a0       _acmdln                    00000001800310a0     <common>
 0003:000040a8       dh_g_bIsUnicodeMode        00000001800310a8     <common>

 entry point at        0001:0000bd70

 Static symbols

 0000:fffca000       .debug$S                   0000000180000000     node:node.dll
 0000:fffca000       .debug$S                   0000000180000000     kernel32:KERNEL32.dll
 0000:fffca000       .debug$S                   0000000180000000     kernel32:KERNEL32.dll
 0000:fffca000       .debug$S                   0000000180000000     kernel32:KERNEL32.dll
 0000:fffca000       .debug$S                   0000000180000000     kernel32:KERNEL32.dll
 0000:fffca000       .debug$S                   0000000180000000     kernel32:KERNEL32.dll
 0000:fffca000       .debug$S                   0000000180000000     kernel32:KERNEL32.dll
 0000:fffca000       .debug$S                   0000000180000000     kernel32:KERNEL32.dll
 0000:fffca000       .debug$S                   0000000180000000     kernel32:KERNEL32.dll
 0000:fffca000       .debug$S                   0000000180000000     kernel32:KERNEL32.dll
 0000:fffca000       .debug$S                   0000000180000000     kernel32:KERNEL32.dll
 0000:fffca000       .debug$S                   0000000180000000     kernel32:KERNEL32.dll
 0000:fffca000       .debug$S                   0000000180000000     kernel32:KERNEL32.dll
 0000:fffca000       .debug$S                   0000000180000000     kernel32:KERNEL32.dll
 0000:fffca000       .debug$S                   0000000180000000     kernel32:KERNEL32.dll
 0000:fffca000       .debug$S                   0000000180000000     kernel32:KERNEL32.dll
 0000:fffca000       .debug$S                   0000000180000000     kernel32:KERNEL32.dll
 0000:fffca000       .debug$S                   0000000180000000     kernel32:KERNEL32.dll
 0000:fffca000       .debug$S                   0000000180000000     kernel32:KERNEL32.dll
 0000:fffca000       .debug$S                   0000000180000000     kernel32:KERNEL32.dll
 0000:fffca000       .debug$S                   0000000180000000     kernel32:KERNEL32.dll
 0000:fffca000       .debug$S                   0000000180000000     kernel32:KERNEL32.dll
 0000:fffca000       .debug$S                   0000000180000000     kernel32:KERNEL32.dll
 0000:fffca000       .debug$S                   0000000180000000     kernel32:KERNEL32.dll
 0000:fffca000       .debug$S                   0000000180000000     kernel32:KERNEL32.dll
 0000:fffca000       .debug$S                   0000000180000000     kernel32:KERNEL32.dll
 0000:fffca000       .debug$S                   0000000180000000     kernel32:KERNEL32.dll
 0000:fffca000       .debug$S                   0000000180000000     kernel32:KERNEL32.dll
 0000:fffca000       .debug$S                   0000000180000000     kernel32:KERNEL32.dll
 0000:fffca000       .debug$S                   0000000180000000     kernel32:KERNEL32.dll
 0000:fffca000       .debug$S                   0000000180000000     kernel32:KERNEL32.dll
 0000:fffca000       .debug$S                   0000000180000000     kernel32:KERNEL32.dll
 0000:fffca000       .debug$S                   0000000180000000     kernel32:KERNEL32.dll
 0000:fffca000       .debug$S                   0000000180000000     kernel32:KERNEL32.dll
 0000:fffca000       .debug$S                   0000000180000000     kernel32:KERNEL32.dll
 0000:fffca000       .debug$S                   0000000180000000     kernel32:KERNEL32.dll
 0000:fffca000       .debug$S                   0000000180000000     kernel32:KERNEL32.dll
 0000:fffca000       .debug$S                   0000000180000000     kernel32:KERNEL32.dll
 0000:fffca000       .debug$S                   0000000180000000     kernel32:KERNEL32.dll
 0000:fffca000       .debug$S                   0000000180000000     kernel32:KERNEL32.dll
 0000:fffca000       .debug$S                   0000000180000000     kernel32:KERNEL32.dll
 0000:fffca000       .debug$S                   0000000180000000     kernel32:KERNEL32.dll
 0000:fffca000       .debug$S                   0000000180000000     kernel32:KERNEL32.dll
 0000:fffca000       .debug$S                   0000000180000000     kernel32:KERNEL32.dll
 0000:fffca000       .debug$S                   0000000180000000     kernel32:KERNEL32.dll
 0000:fffca000       .debug$S                   0000000180000000     kernel32:KERNEL32.dll
 0000:fffca000       .debug$S                   0000000180000000     kernel32:KERNEL32.dll
 0000:fffca000       .debug$S                   0000000180000000     kernel32:KERNEL32.dll
 0000:fffca000       .debug$S                   0000000180000000     kernel32:KERNEL32.dll
 0000:fffca000       .debug$S                   0000000180000000     kernel32:KERNEL32.dll
 0000:fffca000       .debug$S                   0000000180000000     kernel32:KERNEL32.dll
 0000:fffca000       .debug$S                   0000000180000000     kernel32:KERNEL32.dll
 0000:fffca000       .debug$S                   0000000180000000     kernel32:KERNEL32.dll
 0000:fffca000       .debug$S                   0000000180000000     kernel32:KERNEL32.dll
 0000:fffca000       .debug$S                   0000000180000000     kernel32:KERNEL32.dll
 0000:fffca000       .debug$S                   0000000180000000     kernel32:KERNEL32.dll
 0000:fffca000       .debug$S                   0000000180000000     kernel32:KERNEL32.dll
 0000:fffca000       .debug$S                   0000000180000000     kernel32:KERNEL32.dll
 0000:fffca000       .debug$S                   0000000180000000     kernel32:KERNEL32.dll
 0000:fffca000       .debug$S                   0000000180000000     kernel32:KERNEL32.dll
 0000:fffca000       .debug$S                   0000000180000000     kernel32:KERNEL32.dll
 0000:fffca000       .debug$S                   0000000180000000     kernel32:KERNEL32.dll
 0000:fffca000       .debug$S                   0000000180000000     kernel32:KERNEL32.dll
 0000:fffca000       .debug$S                   0000000180000000     kernel32:KERNEL32.dll
 0000:fffca000       .debug$S                   0000000180000000     kernel32:KERNEL32.dll
 0000:fffca000       .debug$S                   0000000180000000     kernel32:KERNEL32.dll
 0000:fffca000       .debug$S                   0000000180000000     kernel32:KERNEL32.dll
 0000:fffca000       .debug$S                   0000000180000000     kernel32:KERNEL32.dll
 0000:fffca000       .debug$S                   0000000180000000     kernel32:KERNEL32.dll
 0000:fffca000       .debug$S                   0000000180000000     kernel32:KERNEL32.dll
 0000:fffca000       .debug$S                   0000000180000000     kernel32:KERNEL32.dll
 0000:fffca000       .debug$S                   0000000180000000     kernel32:KERNEL32.dll
 0000:fffca000       .debug$S                   0000000180000000     kernel32:KERNEL32.dll
 0000:fffca000       .debug$S                   0000000180000000     kernel32:KERNEL32.dll
 0000:fffca000       .debug$S                   0000000180000000     kernel32:KERNEL32.dll
 0000:fffca000       .debug$S                   0000000180000000     kernel32:KERNEL32.dll
 0000:fffca000       .debug$S                   0000000180000000     kernel32:KERNEL32.dll
 0000:fffca000       .debug$S                   0000000180000000     kernel32:KERNEL32.dll
 0000:fffca000       .debug$S                   0000000180000000     kernel32:KERNEL32.dll
 0000:fffca000       .debug$S                   0000000180000000     kernel32:KERNEL32.dll
 0000:fffca000       .debug$S                   0000000180000000     kernel32:KERNEL32.dll
 0000:fffca000       .debug$S                   0000000180000000     kernel32:KERNEL32.dll
 0000:fffca000       .debug$S                   0000000180000000     kernel32:KERNEL32.dll
 0000:fffca000       .debug$S                   0000000180000000     kernel32:KERNEL32.dll
 0000:fffca000       .debug$S                   0000000180000000     kernel32:KERNEL32.dll
 0000:fffca000       .debug$S                   0000000180000000     kernel32:KERNEL32.dll
 0000:fffca000       .debug$S                   0000000180000000     kernel32:KERNEL32.dll
 0000:fffca000       .debug$S                   0000000180000000     kernel32:KERNEL32.dll
 0000:fffca000       .debug$S                   0000000180000000     kernel32:KERNEL32.dll
 0000:fffca000       .debug$S                   0000000180000000     kernel32:KERNEL32.dll
 0000:fffca000       .debug$S                   0000000180000000     kernel32:KERNEL32.dll
 0000:fffca000       .debug$S                   0000000180000000     kernel32:KERNEL32.dll
 0000:fffca000       .debug$S                   0000000180000000     kernel32:KERNEL32.dll
 0000:fffca000       .debug$S                   0000000180000000     kernel32:KERNEL32.dll
 0000:fffca000       .debug$S                   0000000180000000     kernel32:KERNEL32.dll
 0000:fffca000       .debug$S                   0000000180000000     kernel32:KERNEL32.dll
 0000:fffca000       .debug$S                   0000000180000000     kernel32:KERNEL32.dll
 0000:fffca000       .debug$S                   0000000180000000     kernel32:KERNEL32.dll
 0000:fffca000       .debug$S                   0000000180000000     kernel32:KERNEL32.dll
 0000:fffca000       .debug$S                   0000000180000000     kernel32:KERNEL32.dll
 0000:fffca000       .debug$S                   0000000180000000     kernel32:KERNEL32.dll
 0000:fffca000       .debug$S                   0000000180000000     kernel32:KERNEL32.dll
 0000:fffca000       .debug$S                   0000000180000000     user32:USER32.dll
 0000:fffca000       .debug$S                   0000000180000000     ole32:ole32.dll
 0000:fffca000       .debug$S                   0000000180000000     ole32:ole32.dll
 0000:fffca000       .debug$S                   0000000180000000     ole32:ole32.dll
 0000:fffca000       .debug$S                   0000000180000000     ole32:ole32.dll
 0000:fffca000       .debug$S                   0000000180000000     ole32:ole32.dll
 0000:fffca000       .debug$S                   0000000180000000     ole32:ole32.dll
 0000:fffca000       .debug$S                   0000000180000000     oleaut32:OLEAUT32.dll
 0000:fffca000       .debug$S                   0000000180000000     oleaut32:OLEAUT32.dll
 0000:fffca000       .debug$S                   0000000180000000     oleaut32:OLEAUT32.dll
 0000:fffca000       .debug$S                   0000000180000000     oleaut32:OLEAUT32.dll
 0000:fffca000       .debug$S                   0000000180000000     oleaut32:OLEAUT32.dll
 0000:fffca000       .debug$S                   0000000180000000     oleaut32:OLEAUT32.dll
 0000:fffca000       .debug$S                   0000000180000000     oleaut32:OLEAUT32.dll
 0000:fffca000       .debug$S                   0000000180000000     oleaut32:OLEAUT32.dll
 0000:fffca000       .debug$S                   0000000180000000     node:node.dll
 0000:fffca000       .debug$S                   0000000180000000     node:node.dll
 0000:fffca000       .debug$S                   0000000180000000     node:node.dll
 0000:fffca000       .debug$S                   0000000180000000     node:node.dll
 0000:fffca000       .debug$S                   0000000180000000     node:node.dll
 0000:fffca000       .debug$S                   0000000180000000     node:node.dll
 0000:fffca000       .debug$S                   0000000180000000     node:node.dll
 0000:fffca000       .debug$S                   0000000180000000     node:node.dll
 0000:fffca000       .debug$S                   0000000180000000     node:node.dll
 0000:fffca000       .debug$S                   0000000180000000     node:node.dll
 0000:fffca000       .debug$S                   0000000180000000     node:node.dll
 0000:fffca000       .debug$S                   0000000180000000     node:node.dll
 0000:fffca000       .debug$S                   0000000180000000     node:node.dll
 0000:fffca000       .debug$S                   0000000180000000     node:node.dll
 0000:fffca000       .debug$S                   0000000180000000     node:node.dll
 0000:fffca000       .debug$S                   0000000180000000     node:node.dll
 0000:fffca000       .debug$S                   0000000180000000     node:node.dll
 0000:fffca000       .debug$S                   0000000180000000     node:node.dll
 0000:fffca000       .debug$S                   0000000180000000     node:node.dll
 0000:fffca000       .debug$S                   0000000180000000     node:node.dll
 0000:fffca000       .debug$S                   0000000180000000     node:node.dll
 0000:fffca000       .debug$S                   0000000180000000     node:node.dll
 0000:fffca000       .debug$S                   0000000180000000     node:node.dll
 0000:fffca000       .debug$S                   0000000180000000     node:node.dll
 0000:fffca000       .debug$S                   0000000180000000     node:node.dll
 0000:fffca000       .debug$S                   0000000180000000     node:node.dll
 0000:fffca000       .debug$S                   0000000180000000     node:node.dll
 0000:fffca000       .debug$S                   0000000180000000     node:node.dll
 0000:fffca000       .debug$S                   0000000180000000     node:node.dll
 0000:fffca000       .debug$S                   0000000180000000     node:node.dll
 0000:fffca000       .debug$S                   0000000180000000     node:node.dll
 0000:fffca000       .debug$S                   0000000180000000     node:node.dll
 0000:fffca000       .debug$S                   0000000180000000     node:node.dll
 0000:fffca000       .debug$S                   0000000180000000     node:node.dll
 0000:fffca000       .debug$S                   0000000180000000     node:node.dll
 0000:fffca000       .debug$S                   0000000180000000     node:node.dll
 0000:fffca000       .debug$S                   0000000180000000     node:node.dll
 0000:fffca000       .debug$S                   0000000180000000     node:node.dll
 0000:fffca000       .debug$S                   0000000180000000     node:node.dll
 0000:fffca000       .debug$S                   0000000180000000     node:node.dll
 0000:fffca000       .debug$S                   0000000180000000     node:node.dll
 0000:fffca000       .debug$S                   0000000180000000     node:node.dll
 0000:fffca000       .debug$S                   0000000180000000     node:node.dll
 0000:fffca000       .debug$S                   0000000180000000     node:node.dll
 0000:fffca000       .debug$S                   0000000180000000     node:node.dll
 0000:fffca000       .debug$S                   0000000180000000     node:node.dll
 0000:fffca000       .debug$S                   0000000180000000     node:node.dll
 0000:fffca000       .debug$S                   0000000180000000     node:node.dll
 0000:fffca000       .debug$S                   0000000180000000     node:node.dll
 0000:fffca000       .debug$S                   0000000180000000     node:node.dll
 0000:fffca000       .debug$S                   0000000180000000     node:node.dll
 0000:fffca000       .debug$S                   0000000180000000     node:node.dll
 0000:fffca000       .debug$S                   0000000180000000     node:node.dll
 0000:fffca000       .debug$S                   0000000180000000     node:node.dll
 0000:fffca000       .debug$S                   0000000180000000     node:node.dll
 0000:fffca000       .debug$S                   0000000180000000     node:node.dll
 0000:fffca000       .debug$S                   0000000180000000     node:node.dll
 0000:fffca000       .debug$S                   0000000180000000     node:node.dll
 0000:fffca000       .debug$S                   0000000180000000     node:node.dll
 0000:fffca000       .debug$S                   0000000180000000     node:node.dll
 0000:fffca000       .debug$S                   0000000180000000     node:node.dll
 0000:fffca000       .debug$S                   0000000180000000     node:node.dll
 0000:fffca000       .debug$S                   0000000180000000     node:node.dll
 0000:fffca000       .debug$S                   0000000180000000     node:node.dll
 0000:fffca000       .debug$S                   0000000180000000     node:node.dll
 0000:fffca000       .debug$S                   0000000180000000     node:node.dll
 0000:fffca000       .debug$S                   0000000180000000     node:node.dll
 0000:fffca000       .debug$S                   0000000180000000     node:node.dll
 0001:00000000       ??__Eg_closingHandles@@YAXXZ 0000000180001000 f   serialport_win.obj
 0001:00000090       ?FunctionCallbackWrapper@imp@Nan@@YAXAEBV?$FunctionCallbackInfo@VValue@v8@@@v8@@@Z 0000000180001090 f   serialport.obj
 0001:000005d0       ?newQForFD@@YAPEAU_WriteQueue@@H@Z 00000001800015d0 f   serialport.obj
 0001:00005bd0       ?FinalizerCallback@@YAXPEADPEAX@Z 0000000180006bd0 f   serialport_win.obj
 0001:00007284       $LN72                      0000000180008284     disphelper.obj
 0001:000072b0       $LN71                      00000001800082b0     disphelper.obj
 0001:000072e8       $LN70                      00000001800082e8     disphelper.obj
 0001:00007318       $LN69                      0000000180008318     disphelper.obj
 0001:00007520       TraverseSubObjects         0000000180008520 f   disphelper.obj
 0001:000076d0       InternalInvokeV            00000001800086d0 f   disphelper.obj
 0001:000078a0       CreateArgumentArray        00000001800088a0 f   disphelper.obj
 0001:00007a90       ExtractArgument            0000000180008a90 f   disphelper.obj
 0001:00007d90       $LN50                      0000000180008d90     disphelper.obj
 0001:00007dd4       $LN49                      0000000180008dd4     disphelper.obj
 0001:00009660       $$000000                   000000018000a660     LIBCMT:amdsecgs.obj
 0001:00009690       $$000000                   000000018000a690     LIBCMT:memcpy.obj
 0001:00009780       MoveSmall                  000000018000a780     LIBCMT:memcpy.obj
 0001:0000a600       swprintf                   000000018000b600 f   LIBCMT:wassert.obj
 0001:0000aaa0       $$000000                   000000018000baa0     LIBCMT:strncpy.obj
 0001:0000ad98       _make__time64_t            000000018000bd98 f   LIBCMT:mktime64.obj
 0001:0000bdb0       __DllMainCRTStartup        000000018000cdb0 f   LIBCMT:dllcrt0.obj
 0001:0000bed0       $$000000                   000000018000ced0     LIBCMT:strlen.obj
 0001:0000cfc8       _initterm                  000000018000dfc8 f   LIBCMT:crt0dat.obj
 0001:0000d07c       doexit                     000000018000e07c f   LIBCMT:crt0dat.obj
 0001:0000db04       xtow_s                     000000018000eb04 f   LIBCMT:xtows.obj
 0001:0000df08       flsall                     000000018000ef08 f   LIBCMT:fflush.obj
 0001:0000ed88       _call_matherr              000000018000fd88 f   LIBCMT:libm_error.obj
 0001:0000edf0       _exception_enabled         000000018000fdf0 f   LIBCMT:libm_error.obj
 0001:0000fb70       write_char                 0000000180010b70 f   LIBCMT:output.obj
 0001:0000fbb8       write_multi_char           0000000180010bb8 f   LIBCMT:output.obj
 0001:0000fc0c       write_string               0000000180010c0c f   LIBCMT:output.obj
 0001:0000fca0       $$000000                   0000000180010ca0     LIBCMT:memset.obj
 0001:0000fe45       MsetTab                    0000000180010e45     LIBCMT:memset.obj
 0001:00010378       _isindst_nolock            0000000180011378 f   LIBCMT:tzset.obj
 0001:00010628       _tzset_nolock              0000000180011628 f   LIBCMT:tzset.obj
 0001:00010a8c       cvtdate                    0000000180011a8c f   LIBCMT:tzset.obj
 0001:00011838       write_char                 0000000180012838 f   LIBCMT:woutput.obj
 0001:00011870       write_multi_char           0000000180012870 f   LIBCMT:woutput.obj
 0001:000118c4       write_string               00000001800128c4 f   LIBCMT:woutput.obj
 0001:00011d2c       ?getSystemCP@@YAHH@Z       0000000180012d2c f   LIBCMT:mbctype.obj
 0001:00011dac       ?setSBCS@@YAXPEAUthreadmbcinfostruct@@@Z 0000000180012dac f   LIBCMT:mbctype.obj
 0001:00011e3c       ?setSBUpLow@@YAXPEAUthreadmbcinfostruct@@@Z 0000000180012e3c f   LIBCMT:mbctype.obj
 0001:0001278c       ?strtoxl@@YAKPEAUlocaleinfo_struct@@PEBDPEAPEBDHH@Z 000000018001378c f   LIBCMT:strtol.obj
 0001:0001314c       parse_cmdline              000000018001414c f   LIBCMT:stdargv.obj
 0001:00013d50       ?CatchIt@@YAXPEAUEHExceptionRecord@@PEA_KPEAU_CONTEXT@@PEAU_xDISPATCHER_CONTEXT@@PEBU_s_FuncInfo@@PEBU_s_HandlerType@@PEBU_s_CatchableType@@PEBU_s_TryBlockMapEntry@@H1EE@Z 0000000180014d50 f   LIBCMT:frame.obj
 0001:00013e14       ?FindHandler@@YAXPEAUEHExceptionRecord@@PEA_KPEAU_CONTEXT@@PEAU_xDISPATCHER_CONTEXT@@PEBU_s_FuncInfo@@EH1@Z 0000000180014e14 f   LIBCMT:frame.obj
 0001:000142c8       ?FindHandlerForForeignException@@YAXPEAUEHExceptionRecord@@PEA_KPEAU_CONTEXT@@PEAU_xDISPATCHER_CONTEXT@@PEBU_s_FuncInfo@@HH1@Z 00000001800152c8 f   LIBCMT:frame.obj
 0001:00014530       ?IsInExceptionSpec@@YAEPEAUEHExceptionRecord@@PEBU_s_ESTypeList@@@Z 0000000180015530 f   LIBCMT:frame.obj
 0001:00015210       $$000000                   0000000180016210     LIBCMT:strcmp.obj
 0001:00015748       _cftoe2_l                  0000000180016748 f   LIBCMT:cvt.obj
 0001:00015a3c       _cftof2_l                  0000000180016a3c f   LIBCMT:cvt.obj
 0001:00017140       $$000000                   0000000180018140     LIBCMT:jmpuwind.obj
 0001:000174b0       $$000000                   00000001800184b0     LIBCMT:fpsr.obj
 0001:000185f8       ?__crtLCMapStringA_stat@@YAHPEAUlocaleinfo_struct@@PEB_WKPEBDHPEADHHH@Z 00000001800195f8 f   LIBCMT:a_map.obj
 0001:0001897c       ?__crtGetStringTypeA_stat@@YAHPEAUlocaleinfo_struct@@KPEBDHPEAGHH@Z 000000018001997c f   LIBCMT:a_str.obj
 0001:00018b70       $$000000                   0000000180019b70     LIBCMT:memcmp.obj
 0001:00018de8       ?x_ismbbtype_l@@YAHPEAUlocaleinfo_struct@@IHH@Z 0000000180019de8 f   LIBCMT:ismbbyte.obj
 0001:00018e90       $$000000                   0000000180019e90     LIBCMT:handlers.obj
 0001:000195b0       $$000000                   000000018001a5b0     LIBCMT:chkstk.obj
 0001:0001bedc       ?__crtCompareStringA_stat@@YAHPEAUlocaleinfo_struct@@PEB_WKPEBDH2HH@Z 000000018001cedc f   LIBCMT:a_cmp.obj
 0001:0001c970       ?dtor$0@?0??New@?$Factory@VFunctionTemplate@v8@@@imp@Nan@@SA?AV?$Local@VFunctionTemplate@v8@@@v8@@P6AXAEBV?$FunctionCallbackInfo@VValue@v8@@@3@@ZV?$Local@VValue@v8@@@5@V?$Local@VSignature@v8@@@5@@Z@4HA 000000018001d970 f   serialport.obj
 0001:0001c97e       ?dtor$1@?0??New@?$Factory@VFunctionTemplate@v8@@@imp@Nan@@SA?AV?$Local@VFunctionTemplate@v8@@@v8@@P6AXAEBV?$FunctionCallbackInfo@VValue@v8@@@3@@ZV?$Local@VValue@v8@@@5@V?$Local@VSignature@v8@@@5@@Z@4HA 000000018001d97e f   serialport.obj
 0001:0001c990       ?dtor$0@?0???1EscapableHandleScope@Nan@@QEAA@XZ@4HA 000000018001d990 f   serialport.obj
 0001:0001c99e       ?dtor$1@?0???1EscapableHandleScope@Nan@@QEAA@XZ@4HA 000000018001d99e f   serialport.obj
 0001:0001c9b0       ?dtor$0@?0???1HandleScope@Nan@@QEAA@XZ@4HA 000000018001d9b0 f   serialport.obj
 0001:0001c9c0       ?dtor$2@?0???0Callback@Nan@@QEAA@AEBV?$Local@VFunction@v8@@@v8@@@Z@4HA 000000018001d9c0 f   serialport.obj
 0001:0001c9cc       ?dtor$0@?0???0Callback@Nan@@QEAA@AEBV?$Local@VFunction@v8@@@v8@@@Z@4HA 000000018001d9cc f   serialport.obj
 0001:0001c9d8       ?dtor$3@?0???0Callback@Nan@@QEAA@AEBV?$Local@VFunction@v8@@@v8@@@Z@4HA 000000018001d9d8 f   serialport.obj
 0001:0001c9e6       ?dtor$1@?0???0Callback@Nan@@QEAA@AEBV?$Local@VFunction@v8@@@v8@@@Z@4HA 000000018001d9e6 f   serialport.obj
 0001:0001c9f2       ?dtor$5@?0???0Callback@Nan@@QEAA@AEBV?$Local@VFunction@v8@@@v8@@@Z@4HA 000000018001d9f2 f   serialport.obj
 0001:0001ca00       ?dtor$4@?0???0Callback@Nan@@QEAA@AEBV?$Local@VFunction@v8@@@v8@@@Z@4HA 000000018001da00 f   serialport.obj
 0001:0001ca0c       ?dtor$6@?0???0Callback@Nan@@QEAA@AEBV?$Local@VFunction@v8@@@v8@@@Z@4HA 000000018001da0c f   serialport.obj
 0001:0001ca1a       ?dtor$7@?0???0Callback@Nan@@QEAA@AEBV?$Local@VFunction@v8@@@v8@@@Z@4HA 000000018001da1a f   serialport.obj
 0001:0001ca30       ?dtor$1@?0??Call_@Callback@Nan@@AEBA?AV?$Local@VValue@v8@@@v8@@PEAVIsolate@4@V?$Local@VObject@v8@@@4@HQEAV34@@Z@4HA 000000018001da30 f   serialport.obj
 0001:0001ca30       ?dtor$1@?0??Error@Nan@@YA?AV?$Local@VValue@v8@@@v8@@PEBD@Z@4HA 000000018001da30 f   serialport_win.obj
 0001:0001ca3e       ?dtor$0@?0??Error@Nan@@YA?AV?$Local@VValue@v8@@@v8@@PEBD@Z@4HA 000000018001da3e f   serialport_win.obj
 0001:0001ca3e       ?dtor$0@?0??Call_@Callback@Nan@@AEBA?AV?$Local@VValue@v8@@@v8@@PEAVIsolate@4@V?$Local@VObject@v8@@@4@HQEAV34@@Z@4HA 000000018001da3e f   serialport.obj
 0001:0001ca4a       ?dtor$2@?0??Error@Nan@@YA?AV?$Local@VValue@v8@@@v8@@PEBD@Z@4HA 000000018001da4a f   serialport_win.obj
 0001:0001ca4a       ?dtor$2@?0??Call_@Callback@Nan@@AEBA?AV?$Local@VValue@v8@@@v8@@PEAVIsolate@4@V?$Local@VObject@v8@@@4@HQEAV34@@Z@4HA 000000018001da4a f   serialport.obj
 0001:0001ca58       ?dtor$3@?0??Call_@Callback@Nan@@AEBA?AV?$Local@VValue@v8@@@v8@@PEAVIsolate@4@V?$Local@VObject@v8@@@4@HQEAV34@@Z@4HA 000000018001da58 f   serialport.obj
 0001:0001ca58       ?dtor$3@?0??Error@Nan@@YA?AV?$Local@VValue@v8@@@v8@@PEBD@Z@4HA 000000018001da58 f   serialport_win.obj
 0001:0001ca70       ?dtor$0@?0???1?$Persistent@VObject@v8@@V?$NonCopyablePersistentTraits@VObject@v8@@@2@@Nan@@QEAA@XZ@4HA 000000018001da70 f   serialport.obj
 0001:0001ca80       ?dtor$0@?0???0_WriteQueue@@QEAA@H@Z@4HA 000000018001da80 f   serialport.obj
 0001:0001ca80       ?dtor$0@?0???_G_WriteQueue@@QEAAPEAXI@Z@4HA 000000018001da80 f   serialport.obj
 0001:0001ca90       ?dtor$0@?0??newQForFD@@YAPEAU_WriteQueue@@H@Z@4HA 000000018001da90 f   serialport.obj
 0001:0001ca9c       ?dtor$1@?0??newQForFD@@YAPEAU_WriteQueue@@H@Z@4HA 000000018001da9c f   serialport.obj
 0001:0001cab0       ?dtor$6@?0??Open@@YAXAEBV?$FunctionCallbackInfo@VValue@v8@@@Nan@@@Z@4HA 000000018001dab0 f   serialport.obj
 0001:0001cabe       ?dtor$5@?0??Open@@YAXAEBV?$FunctionCallbackInfo@VValue@v8@@@Nan@@@Z@4HA 000000018001dabe f   serialport.obj
 0001:0001caca       ?dtor$7@?0??Open@@YAXAEBV?$FunctionCallbackInfo@VValue@v8@@@Nan@@@Z@4HA 000000018001daca f   serialport.obj
 0001:0001cad8       ?dtor$0@?0??Open@@YAXAEBV?$FunctionCallbackInfo@VValue@v8@@@Nan@@@Z@4HA 000000018001dad8 f   serialport.obj
 0001:0001cae6       ?dtor$9@?0??Open@@YAXAEBV?$FunctionCallbackInfo@VValue@v8@@@Nan@@@Z@4HA 000000018001dae6 f   serialport.obj
 0001:0001caf4       ?dtor$8@?0??Open@@YAXAEBV?$FunctionCallbackInfo@VValue@v8@@@Nan@@@Z@4HA 000000018001daf4 f   serialport.obj
 0001:0001cb00       ?dtor$10@?0??Open@@YAXAEBV?$FunctionCallbackInfo@VValue@v8@@@Nan@@@Z@4HA 000000018001db00 f   serialport.obj
 0001:0001cb0e       ?dtor$12@?0??Open@@YAXAEBV?$FunctionCallbackInfo@VValue@v8@@@Nan@@@Z@4HA 000000018001db0e f   serialport.obj
 0001:0001cb1c       ?dtor$11@?0??Open@@YAXAEBV?$FunctionCallbackInfo@VValue@v8@@@Nan@@@Z@4HA 000000018001db1c f   serialport.obj
 0001:0001cb28       ?dtor$13@?0??Open@@YAXAEBV?$FunctionCallbackInfo@VValue@v8@@@Nan@@@Z@4HA 000000018001db28 f   serialport.obj
 0001:0001cb36       ?dtor$16@?0??Open@@YAXAEBV?$FunctionCallbackInfo@VValue@v8@@@Nan@@@Z@4HA 000000018001db36 f   serialport.obj
 0001:0001cb44       ?dtor$14@?0??Open@@YAXAEBV?$FunctionCallbackInfo@VValue@v8@@@Nan@@@Z@4HA 000000018001db44 f   serialport.obj
 0001:0001cb50       ?dtor$15@?0??Open@@YAXAEBV?$FunctionCallbackInfo@VValue@v8@@@Nan@@@Z@4HA 000000018001db50 f   serialport.obj
 0001:0001cb5c       ?dtor$17@?0??Open@@YAXAEBV?$FunctionCallbackInfo@VValue@v8@@@Nan@@@Z@4HA 000000018001db5c f   serialport.obj
 0001:0001cb6a       ?dtor$1@?0??Open@@YAXAEBV?$FunctionCallbackInfo@VValue@v8@@@Nan@@@Z@4HA 000000018001db6a f   serialport.obj
 0001:0001cb76       ?dtor$2@?0??Open@@YAXAEBV?$FunctionCallbackInfo@VValue@v8@@@Nan@@@Z@4HA 000000018001db76 f   serialport.obj
 0001:0001cb82       ?dtor$3@?0??Open@@YAXAEBV?$FunctionCallbackInfo@VValue@v8@@@Nan@@@Z@4HA 000000018001db82 f   serialport.obj
 0001:0001cb8e       ?dtor$4@?0??Open@@YAXAEBV?$FunctionCallbackInfo@VValue@v8@@@Nan@@@Z@4HA 000000018001db8e f   serialport.obj
 0001:0001cba0       ?dtor$1@?0??EIO_AfterOpen@@YAXPEAUuv_work_s@@@Z@4HA 000000018001dba0 f   serialport.obj
 0001:0001cba0       ?dtor$1@?0??EIO_AfterUpdate@@YAXPEAUuv_work_s@@@Z@4HA 000000018001dba0 f   serialport.obj
 0001:0001cbae       ?dtor$0@?0??EIO_AfterOpen@@YAXPEAUuv_work_s@@@Z@4HA 000000018001dbae f   serialport.obj
 0001:0001cbae       ?dtor$0@?0??EIO_AfterUpdate@@YAXPEAUuv_work_s@@@Z@4HA 000000018001dbae f   serialport.obj
 0001:0001cbba       ?dtor$2@?0??EIO_AfterUpdate@@YAXPEAUuv_work_s@@@Z@4HA 000000018001dbba f   serialport.obj
 0001:0001cbba       ?dtor$2@?0??EIO_AfterOpen@@YAXPEAUuv_work_s@@@Z@4HA 000000018001dbba f   serialport.obj
 0001:0001cbc6       ?dtor$3@?0??EIO_AfterOpen@@YAXPEAUuv_work_s@@@Z@4HA 000000018001dbc6 f   serialport.obj
 0001:0001cbc6       ?dtor$3@?0??EIO_AfterUpdate@@YAXPEAUuv_work_s@@@Z@4HA 000000018001dbc6 f   serialport.obj
 0001:0001cbd2       ?dtor$4@?0??EIO_AfterOpen@@YAXPEAUuv_work_s@@@Z@4HA 000000018001dbd2 f   serialport.obj
 0001:0001cbd2       ?dtor$4@?0??EIO_AfterUpdate@@YAXPEAUuv_work_s@@@Z@4HA 000000018001dbd2 f   serialport.obj
 0001:0001cbde       ?dtor$5@?0??EIO_AfterUpdate@@YAXPEAUuv_work_s@@@Z@4HA 000000018001dbde f   serialport.obj
 0001:0001cbde       ?dtor$5@?0??EIO_AfterOpen@@YAXPEAUuv_work_s@@@Z@4HA 000000018001dbde f   serialport.obj
 0001:0001cbea       ?dtor$6@?0??EIO_AfterUpdate@@YAXPEAUuv_work_s@@@Z@4HA 000000018001dbea f   serialport.obj
 0001:0001cbea       ?dtor$6@?0??EIO_AfterOpen@@YAXPEAUuv_work_s@@@Z@4HA 000000018001dbea f   serialport.obj
 0001:0001cbf6       ?dtor$7@?0??EIO_AfterOpen@@YAXPEAUuv_work_s@@@Z@4HA 000000018001dbf6 f   serialport.obj
 0001:0001cbf6       ?dtor$7@?0??EIO_AfterUpdate@@YAXPEAUuv_work_s@@@Z@4HA 000000018001dbf6 f   serialport.obj
 0001:0001cc02       ?dtor$9@?0??EIO_AfterUpdate@@YAXPEAUuv_work_s@@@Z@4HA 000000018001dc02 f   serialport.obj
 0001:0001cc02       ?dtor$9@?0??EIO_AfterOpen@@YAXPEAUuv_work_s@@@Z@4HA 000000018001dc02 f   serialport.obj
 0001:0001cc0e       ?dtor$10@?0??EIO_AfterUpdate@@YAXPEAUuv_work_s@@@Z@4HA 000000018001dc0e f   serialport.obj
 0001:0001cc0e       ?dtor$10@?0??EIO_AfterOpen@@YAXPEAUuv_work_s@@@Z@4HA 000000018001dc0e f   serialport.obj
 0001:0001cc1a       ?dtor$11@?0??EIO_AfterOpen@@YAXPEAUuv_work_s@@@Z@4HA 000000018001dc1a f   serialport.obj
 0001:0001cc1a       ?dtor$11@?0??EIO_AfterUpdate@@YAXPEAUuv_work_s@@@Z@4HA 000000018001dc1a f   serialport.obj
 0001:0001cc30       ?dtor$5@?0??Update@@YAXAEBV?$FunctionCallbackInfo@VValue@v8@@@Nan@@@Z@4HA 000000018001dc30 f   serialport.obj
 0001:0001cc3e       ?dtor$4@?0??Update@@YAXAEBV?$FunctionCallbackInfo@VValue@v8@@@Nan@@@Z@4HA 000000018001dc3e f   serialport.obj
 0001:0001cc4a       ?dtor$6@?0??Update@@YAXAEBV?$FunctionCallbackInfo@VValue@v8@@@Nan@@@Z@4HA 000000018001dc4a f   serialport.obj
 0001:0001cc58       ?dtor$8@?0??Update@@YAXAEBV?$FunctionCallbackInfo@VValue@v8@@@Nan@@@Z@4HA 000000018001dc58 f   serialport.obj
 0001:0001cc66       ?dtor$7@?0??Update@@YAXAEBV?$FunctionCallbackInfo@VValue@v8@@@Nan@@@Z@4HA 000000018001dc66 f   serialport.obj
 0001:0001cc72       ?dtor$9@?0??Update@@YAXAEBV?$FunctionCallbackInfo@VValue@v8@@@Nan@@@Z@4HA 000000018001dc72 f   serialport.obj
 0001:0001cc80       ?dtor$11@?0??Update@@YAXAEBV?$FunctionCallbackInfo@VValue@v8@@@Nan@@@Z@4HA 000000018001dc80 f   serialport.obj
 0001:0001cc8e       ?dtor$10@?0??Update@@YAXAEBV?$FunctionCallbackInfo@VValue@v8@@@Nan@@@Z@4HA 000000018001dc8e f   serialport.obj
 0001:0001cc9a       ?dtor$12@?0??Update@@YAXAEBV?$FunctionCallbackInfo@VValue@v8@@@Nan@@@Z@4HA 000000018001dc9a f   serialport.obj
 0001:0001cca8       ?dtor$15@?0??Update@@YAXAEBV?$FunctionCallbackInfo@VValue@v8@@@Nan@@@Z@4HA 000000018001dca8 f   serialport.obj
 0001:0001ccb6       ?dtor$13@?0??Update@@YAXAEBV?$FunctionCallbackInfo@VValue@v8@@@Nan@@@Z@4HA 000000018001dcb6 f   serialport.obj
 0001:0001ccc2       ?dtor$14@?0??Update@@YAXAEBV?$FunctionCallbackInfo@VValue@v8@@@Nan@@@Z@4HA 000000018001dcc2 f   serialport.obj
 0001:0001ccce       ?dtor$16@?0??Update@@YAXAEBV?$FunctionCallbackInfo@VValue@v8@@@Nan@@@Z@4HA 000000018001dcce f   serialport.obj
 0001:0001ccdc       ?dtor$0@?0??Update@@YAXAEBV?$FunctionCallbackInfo@VValue@v8@@@Nan@@@Z@4HA 000000018001dcdc f   serialport.obj
 0001:0001cce8       ?dtor$1@?0??Update@@YAXAEBV?$FunctionCallbackInfo@VValue@v8@@@Nan@@@Z@4HA 000000018001dce8 f   serialport.obj
 0001:0001ccf4       ?dtor$2@?0??Update@@YAXAEBV?$FunctionCallbackInfo@VValue@v8@@@Nan@@@Z@4HA 000000018001dcf4 f   serialport.obj
 0001:0001cd00       ?dtor$3@?0??Update@@YAXAEBV?$FunctionCallbackInfo@VValue@v8@@@Nan@@@Z@4HA 000000018001dd00 f   serialport.obj
 0001:0001cd10       ?dtor$4@?0??Write@@YAXAEBV?$FunctionCallbackInfo@VValue@v8@@@Nan@@@Z@4HA 000000018001dd10 f   serialport.obj
 0001:0001cd1e       ?dtor$3@?0??Write@@YAXAEBV?$FunctionCallbackInfo@VValue@v8@@@Nan@@@Z@4HA 000000018001dd1e f   serialport.obj
 0001:0001cd2a       ?dtor$5@?0??Write@@YAXAEBV?$FunctionCallbackInfo@VValue@v8@@@Nan@@@Z@4HA 000000018001dd2a f   serialport.obj
 0001:0001cd38       ?dtor$7@?0??Write@@YAXAEBV?$FunctionCallbackInfo@VValue@v8@@@Nan@@@Z@4HA 000000018001dd38 f   serialport.obj
 0001:0001cd46       ?dtor$6@?0??Write@@YAXAEBV?$FunctionCallbackInfo@VValue@v8@@@Nan@@@Z@4HA 000000018001dd46 f   serialport.obj
 0001:0001cd52       ?dtor$8@?0??Write@@YAXAEBV?$FunctionCallbackInfo@VValue@v8@@@Nan@@@Z@4HA 000000018001dd52 f   serialport.obj
 0001:0001cd60       ?dtor$10@?0??Write@@YAXAEBV?$FunctionCallbackInfo@VValue@v8@@@Nan@@@Z@4HA 000000018001dd60 f   serialport.obj
 0001:0001cd6e       ?dtor$9@?0??Write@@YAXAEBV?$FunctionCallbackInfo@VValue@v8@@@Nan@@@Z@4HA 000000018001dd6e f   serialport.obj
 0001:0001cd7a       ?dtor$11@?0??Write@@YAXAEBV?$FunctionCallbackInfo@VValue@v8@@@Nan@@@Z@4HA 000000018001dd7a f   serialport.obj
 0001:0001cd88       ?dtor$0@?0??Write@@YAXAEBV?$FunctionCallbackInfo@VValue@v8@@@Nan@@@Z@4HA 000000018001dd88 f   serialport.obj
 0001:0001cd94       ?dtor$13@?0??Write@@YAXAEBV?$FunctionCallbackInfo@VValue@v8@@@Nan@@@Z@4HA 000000018001dd94 f   serialport.obj
 0001:0001cda0       ?dtor$12@?0??Write@@YAXAEBV?$FunctionCallbackInfo@VValue@v8@@@Nan@@@Z@4HA 000000018001dda0 f   serialport.obj
 0001:0001cdb0       ?dtor$1@?0??Write@@YAXAEBV?$FunctionCallbackInfo@VValue@v8@@@Nan@@@Z@4HA 000000018001ddb0 f   serialport.obj
 0001:0001cdbc       ?dtor$2@?0??Write@@YAXAEBV?$FunctionCallbackInfo@VValue@v8@@@Nan@@@Z@4HA 000000018001ddbc f   serialport.obj
 0001:0001cdc8       ?dtor$15@?0??Write@@YAXAEBV?$FunctionCallbackInfo@VValue@v8@@@Nan@@@Z@4HA 000000018001ddc8 f   serialport.obj
 0001:0001cdd6       ?dtor$14@?0??Write@@YAXAEBV?$FunctionCallbackInfo@VValue@v8@@@Nan@@@Z@4HA 000000018001ddd6 f   serialport.obj
 0001:0001cde2       ?dtor$16@?0??Write@@YAXAEBV?$FunctionCallbackInfo@VValue@v8@@@Nan@@@Z@4HA 000000018001dde2 f   serialport.obj
 0001:0001cdf0       ?dtor$1@?0??EIO_AfterWrite@@YAXPEAUuv_work_s@@@Z@4HA 000000018001ddf0 f   serialport.obj
 0001:0001cdfe       ?dtor$0@?0??EIO_AfterWrite@@YAXPEAUuv_work_s@@@Z@4HA 000000018001ddfe f   serialport.obj
 0001:0001ce0a       ?dtor$5@?0??EIO_AfterWrite@@YAXPEAUuv_work_s@@@Z@4HA 000000018001de0a f   serialport.obj
 0001:0001ce18       ?dtor$4@?0??EIO_AfterWrite@@YAXPEAUuv_work_s@@@Z@4HA 000000018001de18 f   serialport.obj
 0001:0001ce24       ?dtor$6@?0??EIO_AfterWrite@@YAXPEAUuv_work_s@@@Z@4HA 000000018001de24 f   serialport.obj
 0001:0001ce32       ?dtor$8@?0??EIO_AfterWrite@@YAXPEAUuv_work_s@@@Z@4HA 000000018001de32 f   serialport.obj
 0001:0001ce3e       ?dtor$9@?0??EIO_AfterWrite@@YAXPEAUuv_work_s@@@Z@4HA 000000018001de3e f   serialport.obj
 0001:0001ce4a       ?dtor$10@?0??EIO_AfterWrite@@YAXPEAUuv_work_s@@@Z@4HA 000000018001de4a f   serialport.obj
 0001:0001ce5a       ?dtor$11@?0??EIO_AfterWrite@@YAXPEAUuv_work_s@@@Z@4HA 000000018001de5a f   serialport.obj
 0001:0001ce66       ?dtor$12@?0??EIO_AfterWrite@@YAXPEAUuv_work_s@@@Z@4HA 000000018001de66 f   serialport.obj
 0001:0001ce80       ?dtor$2@?0??Flush@@YAXAEBV?$FunctionCallbackInfo@VValue@v8@@@Nan@@@Z@4HA 000000018001de80 f   serialport.obj
 0001:0001ce80       ?dtor$2@?0??Drain@@YAXAEBV?$FunctionCallbackInfo@VValue@v8@@@Nan@@@Z@4HA 000000018001de80 f   serialport.obj
 0001:0001ce80       ?dtor$2@?0??Close@@YAXAEBV?$FunctionCallbackInfo@VValue@v8@@@Nan@@@Z@4HA 000000018001de80 f   serialport.obj
 0001:0001ce8e       ?dtor$1@?0??Close@@YAXAEBV?$FunctionCallbackInfo@VValue@v8@@@Nan@@@Z@4HA 000000018001de8e f   serialport.obj
 0001:0001ce8e       ?dtor$1@?0??Drain@@YAXAEBV?$FunctionCallbackInfo@VValue@v8@@@Nan@@@Z@4HA 000000018001de8e f   serialport.obj
 0001:0001ce8e       ?dtor$1@?0??Flush@@YAXAEBV?$FunctionCallbackInfo@VValue@v8@@@Nan@@@Z@4HA 000000018001de8e f   serialport.obj
 0001:0001ce9a       ?dtor$3@?0??Drain@@YAXAEBV?$FunctionCallbackInfo@VValue@v8@@@Nan@@@Z@4HA 000000018001de9a f   serialport.obj
 0001:0001ce9a       ?dtor$3@?0??Flush@@YAXAEBV?$FunctionCallbackInfo@VValue@v8@@@Nan@@@Z@4HA 000000018001de9a f   serialport.obj
 0001:0001ce9a       ?dtor$3@?0??Close@@YAXAEBV?$FunctionCallbackInfo@VValue@v8@@@Nan@@@Z@4HA 000000018001de9a f   serialport.obj
 0001:0001cea8       ?dtor$5@?0??Drain@@YAXAEBV?$FunctionCallbackInfo@VValue@v8@@@Nan@@@Z@4HA 000000018001dea8 f   serialport.obj
 0001:0001cea8       ?dtor$5@?0??Close@@YAXAEBV?$FunctionCallbackInfo@VValue@v8@@@Nan@@@Z@4HA 000000018001dea8 f   serialport.obj
 0001:0001cea8       ?dtor$5@?0??Flush@@YAXAEBV?$FunctionCallbackInfo@VValue@v8@@@Nan@@@Z@4HA 000000018001dea8 f   serialport.obj
 0001:0001ceb6       ?dtor$4@?0??Close@@YAXAEBV?$FunctionCallbackInfo@VValue@v8@@@Nan@@@Z@4HA 000000018001deb6 f   serialport.obj
 0001:0001ceb6       ?dtor$4@?0??Drain@@YAXAEBV?$FunctionCallbackInfo@VValue@v8@@@Nan@@@Z@4HA 000000018001deb6 f   serialport.obj
 0001:0001ceb6       ?dtor$4@?0??Flush@@YAXAEBV?$FunctionCallbackInfo@VValue@v8@@@Nan@@@Z@4HA 000000018001deb6 f   serialport.obj
 0001:0001cec2       ?dtor$6@?0??Drain@@YAXAEBV?$FunctionCallbackInfo@VValue@v8@@@Nan@@@Z@4HA 000000018001dec2 f   serialport.obj
 0001:0001cec2       ?dtor$6@?0??Close@@YAXAEBV?$FunctionCallbackInfo@VValue@v8@@@Nan@@@Z@4HA 000000018001dec2 f   serialport.obj
 0001:0001cec2       ?dtor$6@?0??Flush@@YAXAEBV?$FunctionCallbackInfo@VValue@v8@@@Nan@@@Z@4HA 000000018001dec2 f   serialport.obj
 0001:0001ced0       ?dtor$0@?0??Drain@@YAXAEBV?$FunctionCallbackInfo@VValue@v8@@@Nan@@@Z@4HA 000000018001ded0 f   serialport.obj
 0001:0001ced0       ?dtor$0@?0??Flush@@YAXAEBV?$FunctionCallbackInfo@VValue@v8@@@Nan@@@Z@4HA 000000018001ded0 f   serialport.obj
 0001:0001ced0       ?dtor$0@?0??Close@@YAXAEBV?$FunctionCallbackInfo@VValue@v8@@@Nan@@@Z@4HA 000000018001ded0 f   serialport.obj
 0001:0001cee0       ?dtor$1@?0??EIO_AfterClose@@YAXPEAUuv_work_s@@@Z@4HA 000000018001dee0 f   serialport.obj
 0001:0001ceee       ?dtor$0@?0??EIO_AfterClose@@YAXPEAUuv_work_s@@@Z@4HA 000000018001deee f   serialport.obj
 0001:0001cefa       ?dtor$3@?0??EIO_AfterClose@@YAXPEAUuv_work_s@@@Z@4HA 000000018001defa f   serialport.obj
 0001:0001cf06       ?dtor$4@?0??EIO_AfterClose@@YAXPEAUuv_work_s@@@Z@4HA 000000018001df06 f   serialport.obj
 0001:0001cf12       ?dtor$5@?0??EIO_AfterClose@@YAXPEAUuv_work_s@@@Z@4HA 000000018001df12 f   serialport.obj
 0001:0001cf20       ?dtor$3@?0??List@@YAXAEBV?$FunctionCallbackInfo@VValue@v8@@@Nan@@@Z@4HA 000000018001df20 f   serialport.obj
 0001:0001cf2e       ?dtor$2@?0??List@@YAXAEBV?$FunctionCallbackInfo@VValue@v8@@@Nan@@@Z@4HA 000000018001df2e f   serialport.obj
 0001:0001cf3a       ?dtor$4@?0??List@@YAXAEBV?$FunctionCallbackInfo@VValue@v8@@@Nan@@@Z@4HA 000000018001df3a f   serialport.obj
 0001:0001cf48       ?dtor$0@?0??List@@YAXAEBV?$FunctionCallbackInfo@VValue@v8@@@Nan@@@Z@4HA 000000018001df48 f   serialport.obj
 0001:0001cf54       ?dtor$8@?0??List@@YAXAEBV?$FunctionCallbackInfo@VValue@v8@@@Nan@@@Z@4HA 000000018001df54 f   serialport.obj
 0001:0001cf73       ?dtor$9@?0??List@@YAXAEBV?$FunctionCallbackInfo@VValue@v8@@@Nan@@@Z@4HA 000000018001df73 f   serialport.obj
 0001:0001cf92       ?dtor$7@?0??List@@YAXAEBV?$FunctionCallbackInfo@VValue@v8@@@Nan@@@Z@4HA 000000018001df92 f   serialport.obj
 0001:0001cf9e       ?dtor$6@?0??List@@YAXAEBV?$FunctionCallbackInfo@VValue@v8@@@Nan@@@Z@4HA 000000018001df9e f   serialport.obj
 0001:0001cfaa       ?dtor$5@?0??List@@YAXAEBV?$FunctionCallbackInfo@VValue@v8@@@Nan@@@Z@4HA 000000018001dfaa f   serialport.obj
 0001:0001cfba       ?dtor$1@?0??List@@YAXAEBV?$FunctionCallbackInfo@VValue@v8@@@Nan@@@Z@4HA 000000018001dfba f   serialport.obj
 0001:0001cfd0       ?dtor$1@?0??EIO_AfterList@@YAXPEAUuv_work_s@@@Z@4HA 000000018001dfd0 f   serialport.obj
 0001:0001cfde       ?dtor$0@?0??EIO_AfterList@@YAXPEAUuv_work_s@@@Z@4HA 000000018001dfde f   serialport.obj
 0001:0001cfea       ?dtor$3@?0??EIO_AfterList@@YAXPEAUuv_work_s@@@Z@4HA 000000018001dfea f   serialport.obj
 0001:0001cff6       ?dtor$4@?0??EIO_AfterList@@YAXPEAUuv_work_s@@@Z@4HA 000000018001dff6 f   serialport.obj
 0001:0001d002       ?dtor$5@?0??EIO_AfterList@@YAXPEAUuv_work_s@@@Z@4HA 000000018001e002 f   serialport.obj
 0001:0001d012       ?dtor$6@?0??EIO_AfterList@@YAXPEAUuv_work_s@@@Z@4HA 000000018001e012 f   serialport.obj
 0001:0001d01e       ?dtor$7@?0??EIO_AfterList@@YAXPEAUuv_work_s@@@Z@4HA 000000018001e01e f   serialport.obj
 0001:0001d02a       ?dtor$8@?0??EIO_AfterList@@YAXPEAUuv_work_s@@@Z@4HA 000000018001e02a f   serialport.obj
 0001:0001d040       ?dtor$0@?0???1ListResultItem@@QEAA@XZ@4HA 000000018001e040 f   serialport.obj
 0001:0001d04c       ?dtor$1@?0???1ListResultItem@@QEAA@XZ@4HA 000000018001e04c f   serialport.obj
 0001:0001d05c       ?dtor$2@?0???1ListResultItem@@QEAA@XZ@4HA 000000018001e05c f   serialport.obj
 0001:0001d06c       ?dtor$3@?0???1ListResultItem@@QEAA@XZ@4HA 000000018001e06c f   serialport.obj
 0001:0001d07c       ?dtor$4@?0???1ListResultItem@@QEAA@XZ@4HA 000000018001e07c f   serialport.obj
 0001:0001d08f       ?dtor$5@?0???1ListResultItem@@QEAA@XZ@4HA 000000018001e08f f   serialport.obj
 0001:0001d0a2       ?dtor$6@?0???1ListResultItem@@QEAA@XZ@4HA 000000018001e0a2 f   serialport.obj
 0001:0001d0c0       ?dtor$1@?0??EIO_AfterDrain@@YAXPEAUuv_work_s@@@Z@4HA 000000018001e0c0 f   serialport.obj
 0001:0001d0c0       ?dtor$1@?0??EIO_AfterFlush@@YAXPEAUuv_work_s@@@Z@4HA 000000018001e0c0 f   serialport.obj
 0001:0001d0c0       ?dtor$1@?0??EIO_AfterSet@@YAXPEAUuv_work_s@@@Z@4HA 000000018001e0c0 f   serialport.obj
 0001:0001d0ce       ?dtor$0@?0??EIO_AfterSet@@YAXPEAUuv_work_s@@@Z@4HA 000000018001e0ce f   serialport.obj
 0001:0001d0ce       ?dtor$0@?0??EIO_AfterFlush@@YAXPEAUuv_work_s@@@Z@4HA 000000018001e0ce f   serialport.obj
 0001:0001d0ce       ?dtor$0@?0??EIO_AfterDrain@@YAXPEAUuv_work_s@@@Z@4HA 000000018001e0ce f   serialport.obj
 0001:0001d0da       ?dtor$3@?0??EIO_AfterSet@@YAXPEAUuv_work_s@@@Z@4HA 000000018001e0da f   serialport.obj
 0001:0001d0da       ?dtor$3@?0??EIO_AfterDrain@@YAXPEAUuv_work_s@@@Z@4HA 000000018001e0da f   serialport.obj
 0001:0001d0da       ?dtor$3@?0??EIO_AfterFlush@@YAXPEAUuv_work_s@@@Z@4HA 000000018001e0da f   serialport.obj
 0001:0001d0e6       ?dtor$4@?0??EIO_AfterFlush@@YAXPEAUuv_work_s@@@Z@4HA 000000018001e0e6 f   serialport.obj
 0001:0001d0e6       ?dtor$4@?0??EIO_AfterDrain@@YAXPEAUuv_work_s@@@Z@4HA 000000018001e0e6 f   serialport.obj
 0001:0001d0e6       ?dtor$4@?0??EIO_AfterSet@@YAXPEAUuv_work_s@@@Z@4HA 000000018001e0e6 f   serialport.obj
 0001:0001d0f2       ?dtor$5@?0??EIO_AfterDrain@@YAXPEAUuv_work_s@@@Z@4HA 000000018001e0f2 f   serialport.obj
 0001:0001d0f2       ?dtor$5@?0??EIO_AfterFlush@@YAXPEAUuv_work_s@@@Z@4HA 000000018001e0f2 f   serialport.obj
 0001:0001d0f2       ?dtor$5@?0??EIO_AfterSet@@YAXPEAUuv_work_s@@@Z@4HA 000000018001e0f2 f   serialport.obj
 0001:0001d100       ?dtor$2@?0??Set@@YAXAEBV?$FunctionCallbackInfo@VValue@v8@@@Nan@@@Z@4HA 000000018001e100 f   serialport.obj
 0001:0001d10e       ?dtor$1@?0??Set@@YAXAEBV?$FunctionCallbackInfo@VValue@v8@@@Nan@@@Z@4HA 000000018001e10e f   serialport.obj
 0001:0001d11a       ?dtor$3@?0??Set@@YAXAEBV?$FunctionCallbackInfo@VValue@v8@@@Nan@@@Z@4HA 000000018001e11a f   serialport.obj
 0001:0001d128       ?dtor$5@?0??Set@@YAXAEBV?$FunctionCallbackInfo@VValue@v8@@@Nan@@@Z@4HA 000000018001e128 f   serialport.obj
 0001:0001d136       ?dtor$4@?0??Set@@YAXAEBV?$FunctionCallbackInfo@VValue@v8@@@Nan@@@Z@4HA 000000018001e136 f   serialport.obj
 0001:0001d142       ?dtor$6@?0??Set@@YAXAEBV?$FunctionCallbackInfo@VValue@v8@@@Nan@@@Z@4HA 000000018001e142 f   serialport.obj
 0001:0001d150       ?dtor$8@?0??Set@@YAXAEBV?$FunctionCallbackInfo@VValue@v8@@@Nan@@@Z@4HA 000000018001e150 f   serialport.obj
 0001:0001d15e       ?dtor$7@?0??Set@@YAXAEBV?$FunctionCallbackInfo@VValue@v8@@@Nan@@@Z@4HA 000000018001e15e f   serialport.obj
 0001:0001d16a       ?dtor$9@?0??Set@@YAXAEBV?$FunctionCallbackInfo@VValue@v8@@@Nan@@@Z@4HA 000000018001e16a f   serialport.obj
 0001:0001d178       ?dtor$0@?0??Set@@YAXAEBV?$FunctionCallbackInfo@VValue@v8@@@Nan@@@Z@4HA 000000018001e178 f   serialport.obj
 0001:0001d190       init$dtor$1                000000018001e190 f   serialport.obj
 0001:0001d19e       init$dtor$0                000000018001e19e f   serialport.obj
 0001:0001d1aa       init$dtor$3                000000018001e1aa f   serialport.obj
 0001:0001d1b8       init$dtor$2                000000018001e1b8 f   serialport.obj
 0001:0001d1c4       init$dtor$4                000000018001e1c4 f   serialport.obj
 0001:0001d1d2       init$dtor$6                000000018001e1d2 f   serialport.obj
 0001:0001d1e0       init$dtor$5                000000018001e1e0 f   serialport.obj
 0001:0001d1ec       init$dtor$7                000000018001e1ec f   serialport.obj
 0001:0001d1fa       init$dtor$9                000000018001e1fa f   serialport.obj
 0001:0001d208       init$dtor$8                000000018001e208 f   serialport.obj
 0001:0001d214       init$dtor$10               000000018001e214 f   serialport.obj
 0001:0001d222       init$dtor$12               000000018001e222 f   serialport.obj
 0001:0001d230       init$dtor$11               000000018001e230 f   serialport.obj
 0001:0001d23c       init$dtor$13               000000018001e23c f   serialport.obj
 0001:0001d24a       init$dtor$15               000000018001e24a f   serialport.obj
 0001:0001d258       init$dtor$14               000000018001e258 f   serialport.obj
 0001:0001d264       init$dtor$16               000000018001e264 f   serialport.obj
 0001:0001d272       init$dtor$18               000000018001e272 f   serialport.obj
 0001:0001d280       init$dtor$17               000000018001e280 f   serialport.obj
 0001:0001d28c       init$dtor$19               000000018001e28c f   serialport.obj
 0001:0001d29a       init$dtor$21               000000018001e29a f   serialport.obj
 0001:0001d2a8       init$dtor$20               000000018001e2a8 f   serialport.obj
 0001:0001d2b4       init$dtor$22               000000018001e2b4 f   serialport.obj
 0001:0001d2c2       init$dtor$24               000000018001e2c2 f   serialport.obj
 0001:0001d2d0       init$dtor$23               000000018001e2d0 f   serialport.obj
 0001:0001d2dc       init$dtor$25               000000018001e2dc f   serialport.obj
 0001:0001d2ea       init$dtor$26               000000018001e2ea f   serialport.obj
 0001:0001d300       ?dtor$0@?0???1?$list@PEAUListResultItem@@V?$allocator@PEAUListResultItem@@@std@@@std@@QEAA@XZ@4HA 000000018001e300 f   serialport.obj
 0001:0001d30c       ?dtor$1@?0???1?$list@PEAUListResultItem@@V?$allocator@PEAUListResultItem@@@std@@@std@@QEAA@XZ@4HA 000000018001e30c f   serialport.obj
 0001:0001d320       ?dtor$0@?0???1?$_List_buy@PEAUListResultItem@@V?$allocator@PEAUListResultItem@@@std@@@std@@QEAA@XZ@4HA 000000018001e320 f   serialport.obj
 0001:0001d330       ?dtor$0@?0??_Copy@?$basic_string@DU?$char_traits@D@std@@V?$allocator@D@2@@std@@QEAAX_K0@Z@4HA 000000018001e330 f   serialport.obj
 0001:0001d350       ?dtor$2@?0???__Eg_closingHandles@@YAXXZ@4HA 000000018001e350 f   serialport_win.obj
 0001:0001d36c       ?dtor$3@?0???__Eg_closingHandles@@YAXXZ@4HA 000000018001e36c f   serialport_win.obj
 0001:0001d388       ?dtor$1@?0???__Eg_closingHandles@@YAXXZ@4HA 000000018001e388 f   serialport_win.obj
 0001:0001d394       ?dtor$0@?0???__Eg_closingHandles@@YAXXZ@4HA 000000018001e394 f   serialport_win.obj
 0001:0001d3a0       ?dtor$0@?0???__Fg_closingHandles@@YAXXZ@4HA 000000018001e3a0 f   serialport_win.obj
 0001:0001d3ac       ?dtor$1@?0???__Fg_closingHandles@@YAXXZ@4HA 000000018001e3ac f   serialport_win.obj
 0001:0001d3c0       ?dtor$0@?0??DisposeWatchPortCallbacks@@YAXPEAUWatchPortBaton@@@Z@4HA 000000018001e3c0 f   serialport_win.obj
 0001:0001d3cc       ?dtor$1@?0??DisposeWatchPortCallbacks@@YAXPEAUWatchPortBaton@@@Z@4HA 000000018001e3cc f   serialport_win.obj
 0001:0001d3d8       ?dtor$2@?0??DisposeWatchPortCallbacks@@YAXPEAUWatchPortBaton@@@Z@4HA 000000018001e3d8 f   serialport_win.obj
 0001:0001d3e4       ?dtor$3@?0??DisposeWatchPortCallbacks@@YAXPEAUWatchPortBaton@@@Z@4HA 000000018001e3e4 f   serialport_win.obj
 0001:0001d3f0       ?dtor$4@?0??DisposeWatchPortCallbacks@@YAXPEAUWatchPortBaton@@@Z@4HA 000000018001e3f0 f   serialport_win.obj
 0001:0001d3fc       ?dtor$5@?0??DisposeWatchPortCallbacks@@YAXPEAUWatchPortBaton@@@Z@4HA 000000018001e3fc f   serialport_win.obj
 0001:0001d410       ?dtor$1@?0??EIO_AfterWatchPort@@YAXPEAUuv_work_s@@@Z@4HA 000000018001e410 f   serialport_win.obj
 0001:0001d41e       ?dtor$0@?0??EIO_AfterWatchPort@@YAXPEAUuv_work_s@@@Z@4HA 000000018001e41e f   serialport_win.obj
 0001:0001d42a       ?dtor$6@?0??EIO_AfterWatchPort@@YAXPEAUuv_work_s@@@Z@4HA 000000018001e42a f   serialport_win.obj
 0001:0001d440       ?dtor$0@?0??EIO_List@@YAXPEAUuv_work_s@@@Z@4HA 000000018001e440 f   serialport_win.obj
 0001:0001d44c       ?dtor$1@?0??EIO_List@@YAXPEAUuv_work_s@@@Z@4HA 000000018001e44c f   serialport_win.obj
 0001:0001d458       ?dtor$2@?0??EIO_List@@YAXPEAUuv_work_s@@@Z@4HA 000000018001e458 f   serialport_win.obj
 0001:0001d464       ?dtor$5@?0??EIO_List@@YAXPEAUuv_work_s@@@Z@4HA 000000018001e464 f   serialport_win.obj
 0001:0001d470       ?dtor$6@?0??EIO_List@@YAXPEAUuv_work_s@@@Z@4HA 000000018001e470 f   serialport_win.obj
 0001:0001d480       ?dtor$7@?0??EIO_List@@YAXPEAUuv_work_s@@@Z@4HA 000000018001e480 f   serialport_win.obj
 0001:0001d490       ?dtor$8@?0??EIO_List@@YAXPEAUuv_work_s@@@Z@4HA 000000018001e490 f   serialport_win.obj
 0001:0001d4a0       ?dtor$9@?0??EIO_List@@YAXPEAUuv_work_s@@@Z@4HA 000000018001e4a0 f   serialport_win.obj
 0001:0001d4b3       ?dtor$10@?0??EIO_List@@YAXPEAUuv_work_s@@@Z@4HA 000000018001e4b3 f   serialport_win.obj
 0001:0001d4c6       ?dtor$11@?0??EIO_List@@YAXPEAUuv_work_s@@@Z@4HA 000000018001e4c6 f   serialport_win.obj
 0001:0001d4d9       ?dtor$12@?0??EIO_List@@YAXPEAUuv_work_s@@@Z@4HA 000000018001e4d9 f   serialport_win.obj
 0001:0001d4f5       ?dtor$13@?0??EIO_List@@YAXPEAUuv_work_s@@@Z@4HA 000000018001e4f5 f   serialport_win.obj
 0001:0001d511       ?dtor$14@?0??EIO_List@@YAXPEAUuv_work_s@@@Z@4HA 000000018001e511 f   serialport_win.obj
 0001:0001d52d       ?dtor$3@?0??EIO_List@@YAXPEAUuv_work_s@@@Z@4HA 000000018001e52d f   serialport_win.obj
 0001:0001d539       ?dtor$4@?0??EIO_List@@YAXPEAUuv_work_s@@@Z@4HA 000000018001e539 f   serialport_win.obj
 0001:0001d545       ?dtor$15@?0??EIO_List@@YAXPEAUuv_work_s@@@Z@4HA 000000018001e545 f   serialport_win.obj
 0001:0001d551       ?dtor$16@?0??EIO_List@@YAXPEAUuv_work_s@@@Z@4HA 000000018001e551 f   serialport_win.obj
 0001:0001d561       ?dtor$17@?0??EIO_List@@YAXPEAUuv_work_s@@@Z@4HA 000000018001e561 f   serialport_win.obj
 0001:0001d571       ?dtor$18@?0??EIO_List@@YAXPEAUuv_work_s@@@Z@4HA 000000018001e571 f   serialport_win.obj
 0001:0001d581       ?dtor$19@?0??EIO_List@@YAXPEAUuv_work_s@@@Z@4HA 000000018001e581 f   serialport_win.obj
 0001:0001d594       ?dtor$20@?0??EIO_List@@YAXPEAUuv_work_s@@@Z@4HA 000000018001e594 f   serialport_win.obj
 0001:0001d5a7       ?dtor$21@?0??EIO_List@@YAXPEAUuv_work_s@@@Z@4HA 000000018001e5a7 f   serialport_win.obj
 0001:0001d5ba       ?dtor$22@?0??EIO_List@@YAXPEAUuv_work_s@@@Z@4HA 000000018001e5ba f   serialport_win.obj
 0001:0001d5d6       ?dtor$23@?0??EIO_List@@YAXPEAUuv_work_s@@@Z@4HA 000000018001e5d6 f   serialport_win.obj
 0001:0001d5f2       ?dtor$24@?0??EIO_List@@YAXPEAUuv_work_s@@@Z@4HA 000000018001e5f2 f   serialport_win.obj
 0001:0001d610       ?dtor$0@?0???1?$_List_buy@HV?$allocator@H@std@@@std@@QEAA@XZ@4HA 000000018001e610 f   serialport_win.obj
 0001:0001d620       ?dtor$0@?0???$_Buynode@AEBH@?$_List_buy@HV?$allocator@H@std@@@std@@QEAAPEAU?$_List_node@HPEAX@1@PEAU21@0AEBH@Z@4HA 000000018001e620 f   serialport_win.obj
 0001:0001d63c       ?dtor$1@?0???$_Buynode@AEBH@?$_List_buy@HV?$allocator@H@std@@@std@@QEAAPEAU?$_List_node@HPEAX@1@PEAU21@0AEBH@Z@4HA 000000018001e63c f   serialport_win.obj
 0001:0001d658       ?dtor$2@?0???$_Buynode@AEBH@?$_List_buy@HV?$allocator@H@std@@@std@@QEAAPEAU?$_List_node@HPEAX@1@PEAU21@0AEBH@Z@4HA 000000018001e658 f   serialport_win.obj
 0001:0001d680       ?dtor$0@?0??UsingQueryDosDevice@CEnumerateSerial@@SAHAEAV?$vector@IV?$allocator@I@std@@@std@@@Z@4HA 000000018001e680 f   enumser.obj
 0001:0001d68c       ?dtor$1@?0??UsingQueryDosDevice@CEnumerateSerial@@SAHAEAV?$vector@IV?$allocator@I@std@@@std@@@Z@4HA 000000018001e68c f   enumser.obj
 0001:0001d6a8       _onexit$fin$0              000000018001e6a8 f   LIBCMT:onexit.obj
 0001:0001d6bc       _CRT_INIT$fin$0            000000018001e6bc f   LIBCMT:dllcrt0.obj
 0001:0001d6e2       __DllMainCRTStartup$filt$0 000000018001e6e2 f   LIBCMT:dllcrt0.obj
 0001:0001d72b       _CallSETranslator$filt$0   000000018001e72b f   LIBCMT:trnsctrl.obj
 0001:0001d771       doexit$fin$0               000000018001e771 f   LIBCMT:crt0dat.obj
 0001:0001d795       flsall$fin$0               000000018001e795 f   LIBCMT:fflush.obj
 0001:0001d7bd       flsall$fin$1               000000018001e7bd f   LIBCMT:fflush.obj
 0001:0001d7d6       setvbuf$fin$0              000000018001e7d6 f   LIBCMT:setvbuf.obj
 0001:0001d7ee       fwprintf$fin$0             000000018001e7ee f   LIBCMT:fwprintf.obj
 0001:0001d808       raise$fin$0                000000018001e808 f   LIBCMT:winsig.obj
 0001:0001d826       _ctrlfp$filt$0             000000018001e826 f   LIBCMT:fpctrl.obj
 0001:0001d852       _initptd$fin$1             000000018001e852 f   LIBCMT:tidtable.obj
 0001:0001d852       _freefls$fin$1             000000018001e852 f   LIBCMT:tidtable.obj
 0001:0001d86b       _freefls$fin$0             000000018001e86b f   LIBCMT:tidtable.obj
 0001:0001d86b       _initptd$fin$0             000000018001e86b f   LIBCMT:tidtable.obj
 0001:0001d884       __tzset$fin$0              000000018001e884 f   LIBCMT:tzset.obj
 0001:0001d884       _isindst$fin$0             000000018001e884 f   LIBCMT:tzset.obj
 0001:0001d89d       _tzset_nolock$fin$0        000000018001e89d f   LIBCMT:tzset.obj
 0001:0001d8b8       _locterm$fin$0             000000018001e8b8 f   LIBCMT:localref.obj
 0001:0001d8b8       __updatetlocinfo$fin$0     000000018001e8b8 f   LIBCMT:localref.obj
 0001:0001d8d1       __updatetmbcinfo$fin$0     000000018001e8d1 f   LIBCMT:mbctype.obj
 0001:0001d8d1       _setmbcp$fin$0             000000018001e8d1 f   LIBCMT:mbctype.obj
 0001:0001d8ea       _ioinit$fin$0              000000018001e8ea f   LIBCMT:ioinit.obj
 0001:0001d905       __CxxCallCatchBlock$filt$0 000000018001e905 f   LIBCMT:frame.obj
 0001:0001d9f9       __CxxCallCatchBlock$fin$1  000000018001e9f9 f   LIBCMT:frame.obj
 0001:0001da77       __DestructExceptionObject$filt$0 000000018001ea77 f   LIBCMT:frame.obj
 0001:0001da8f       __FrameUnwindToState$filt$0 000000018001ea8f f   LIBCMT:frame.obj
 0001:0001daa5       __FrameUnwindToState$fin$1 000000018001eaa5 f   LIBCMT:frame.obj
 0001:0001dace       ?fin$0@?0??_Type_info_dtor@type_info@@CAXPEAV1@@Z@4HA 000000018001eace f   LIBCMT:typname.obj
 0001:0001dae7       _mtinitlocknum$fin$0       000000018001eae7 f   LIBCMT:mlock.obj
 0001:0001db10       _IsNonwritableInCurrentImage$filt$0 000000018001eb10 f   LIBCMT:pesect.obj
 0001:0001db30       _fcloseall$fin$0           000000018001eb30 f   LIBCMT:closeall.obj
 0001:0001db49       _write$fin$0               000000018001eb49 f   LIBCMT:lseeki64.obj
 0001:0001db49       _lseeki64$fin$0            000000018001eb49 f   LIBCMT:lseeki64.obj
 0001:0001db60       fclose$fin$0               000000018001eb60 f   LIBCMT:fclose.obj
 0001:0001db60       fflush$fin$0               000000018001eb60 f   LIBCMT:fclose.obj
 0001:0001db78       __lock_fhandle$fin$0       000000018001eb78 f   LIBCMT:osfinfo.obj
 0001:0001db91       _commit$fin$0              000000018001eb91 f   LIBCMT:close.obj
 0001:0001db91       _close$fin$0               000000018001eb91 f   LIBCMT:close.obj
 0001:0001dbb0       ??__Fg_closingHandles@@YAXXZ 000000018001ebb0 f   serialport_win.obj
 0002:00000530       g_closingHandles$initializer$ 000000018001f530     serialport_win.obj
 0002:00000548       pinit                      000000018001f548     LIBCMT:onexit.obj
 0002:00000550       pinit                      000000018001f550     LIBCMT:cpu_disp.obj
 0002:00000558       pinit                      000000018001f558     LIBCMT:_file.obj
 0002:00000560       pinit                      000000018001f560     LIBCMT:mbctype.obj
 0002:00000578       pterm                      000000018001f578     LIBCMT:wsetloca.obj
 0002:00000580       pterm                      000000018001f580     LIBCMT:initcon.obj
 0002:00000588       pterm                      000000018001f588     LIBCMT:_file.obj
 0002:00000620       _Win_errtab                000000018001f620     libcpmt:syserror.obj
 0002:00000ad0       _Sys_errtab                000000018001fad0     libcpmt:syserror.obj
 0002:00001c10       ?ExceptionTemplate@?1??_CxxThrowException@@9@4UEHExceptionRecord@@B 0000000180020c10     LIBCMT:throw.obj
 0002:00001c50       ?ExceptionTemplate@?1??_UnwindNestedFrames@@9@4U_EXCEPTION_RECORD@@B 0000000180020c50     LIBCMT:trnsctrl.obj
 0002:00001d30       GS_ExceptionPointers       0000000180020d30     LIBCMT:gs_report.obj
 0002:00001d70       rterrs                     0000000180020d70     LIBCMT:crt0msg.obj
 0002:00002998       _mb_locale_names           0000000180021998     LIBCMT:mbctype.obj
 0002:00002db0       _first_127char             0000000180021db0     LIBCMT:wsetloca.obj
 0002:00006570       __real@433fffffffffffff    0000000180025570     LIBCMT:fpsr.obj
 0002:00006578       __real@c33fffffffffffff    0000000180025578     LIBCMT:fpsr.obj
 0002:00006e70       tokenTable                 0000000180025e70     LIBCMT:undname.obj
 0002:00006ee0       nameTable                  0000000180025ee0     LIBCMT:undname.obj
 0002:00007160       rttiTable                  0000000180026160     LIBCMT:undname.obj
 0002:00008450       ?xx_szFunctionName_xx@?1??CreateArgumentArray@@9@9 0000000180027450     disphelper.obj
 0002:00008458       ?xx_szFunctionName_xx@?1??dhGetObject@@9@9 0000000180027458     disphelper.obj
 0002:00008460       ?xx_szFunctionName_xx@?1??dhGetValueV@@9@9 0000000180027460     disphelper.obj
 0002:00008468       TIMET_ONE_DAY              0000000180027468     disphelper.obj
 0002:00008470       ?xx_szFunctionName_xx@?1??dhEnumNextObject@@9@9 0000000180027470     disphelper.obj
 0002:00008478       ?xx_szFunctionName_xx@?1??dhInvokeV@@9@9 0000000180027478     disphelper.obj
 0002:00008480       TIMET_VARIANT_OVERFLOW     0000000180027480     disphelper.obj
 0002:00008488       ?xx_szFunctionName_xx@?1??dhGetValue@@9@9 0000000180027488     disphelper.obj
 0002:00008490       ?xx_szFunctionName_xx@?1??dhInvokeArray@@9@9 0000000180027490     disphelper.obj
 0002:00008498       ?xx_szFunctionName_xx@?1??TraverseSubObjects@@9@9 0000000180027498     disphelper.obj
 0002:000084a0       FILE_TIME_VARIANT_OVERFLOW 00000001800274a0     disphelper.obj
 0002:000084a8       VARIANT_FILE_TIME_DAY0     00000001800274a8     disphelper.obj
 0002:000084b0       ?xx_szFunctionName_xx@?1??InternalInvokeV@@9@9 00000001800274b0     disphelper.obj
 0002:000084b8       FILE_TIME_VARIANT_DAY0     00000001800274b8     disphelper.obj
 0002:000084c0       ?xx_szFunctionName_xx@?1??dhCreateObjectEx@@9@9 00000001800274c0     disphelper.obj
 0002:000084c8       ?xx_szFunctionName_xx@?1??dhEnumBegin@@9@9 00000001800274c8     disphelper.obj
 0002:000084d0       ?xx_szFunctionName_xx@?1??dhGetObjectEx@@9@9 00000001800274d0     disphelper.obj
 0002:000084d8       VARIANT_TIMET_DAY0         00000001800274d8     disphelper.obj
 0002:000084e0       FILE_TIME_ONE_DAY          00000001800274e0     disphelper.obj
 0002:000084e8       ?xx_szFunctionName_xx@?1??dhEnumBeginV@@9@9 00000001800274e8     disphelper.obj
 0002:00008510       $cppxdata$?_Copy@?$basic_string@DU?$char_traits@D@std@@V?$allocator@D@2@@std@@QEAAX_K0@Z 0000000180027510     serialport.obj
 0002:00008538       $cppxdata$??1?$_List_buy@PEAUListResultItem@@V?$allocator@PEAUListResultItem@@@std@@@std@@QEAA@XZ 0000000180027538     serialport.obj
 0002:00008560       $cppxdata$??1?$list@PEAUListResultItem@@V?$allocator@PEAUListResultItem@@@std@@@std@@QEAA@XZ 0000000180027560     serialport.obj
 0002:00008588       $cppxdata$init             0000000180027588     serialport.obj
 0002:000085b0       $cppxdata$?Drain@@YAXAEBV?$FunctionCallbackInfo@VValue@v8@@@Nan@@@Z 00000001800275b0     serialport.obj
 0002:000085d8       $cppxdata$?Set@@YAXAEBV?$FunctionCallbackInfo@VValue@v8@@@Nan@@@Z 00000001800275d8     serialport.obj
 0002:00008600       $cppxdata$?EIO_AfterSet@@YAXPEAUuv_work_s@@@Z 0000000180027600     serialport.obj
 0002:00008600       $cppxdata$?EIO_AfterFlush@@YAXPEAUuv_work_s@@@Z 0000000180027600     serialport.obj
 0002:00008600       $cppxdata$?EIO_AfterDrain@@YAXPEAUuv_work_s@@@Z 0000000180027600     serialport.obj
 0002:00008628       $cppxdata$?Flush@@YAXAEBV?$FunctionCallbackInfo@VValue@v8@@@Nan@@@Z 0000000180027628     serialport.obj
 0002:00008650       $cppxdata$??1ListResultItem@@QEAA@XZ 0000000180027650     serialport.obj
 0002:00008678       $cppxdata$?EIO_AfterList@@YAXPEAUuv_work_s@@@Z 0000000180027678     serialport.obj
 0002:000086a0       $cppxdata$?List@@YAXAEBV?$FunctionCallbackInfo@VValue@v8@@@Nan@@@Z 00000001800276a0     serialport.obj
 0002:000086c8       $cppxdata$?EIO_AfterClose@@YAXPEAUuv_work_s@@@Z 00000001800276c8     serialport.obj
 0002:000086f0       $cppxdata$?Close@@YAXAEBV?$FunctionCallbackInfo@VValue@v8@@@Nan@@@Z 00000001800276f0     serialport.obj
 0002:00008718       $cppxdata$?EIO_AfterWrite@@YAXPEAUuv_work_s@@@Z 0000000180027718     serialport.obj
 0002:00008740       $cppxdata$?Write@@YAXAEBV?$FunctionCallbackInfo@VValue@v8@@@Nan@@@Z 0000000180027740     serialport.obj
 0002:00008768       $cppxdata$?Update@@YAXAEBV?$FunctionCallbackInfo@VValue@v8@@@Nan@@@Z 0000000180027768     serialport.obj
 0002:00008790       $cppxdata$?EIO_AfterUpdate@@YAXPEAUuv_work_s@@@Z 0000000180027790     serialport.obj
 0002:00008790       $cppxdata$?EIO_AfterOpen@@YAXPEAUuv_work_s@@@Z 0000000180027790     serialport.obj
 0002:000087b8       $cppxdata$?Open@@YAXAEBV?$FunctionCallbackInfo@VValue@v8@@@Nan@@@Z 00000001800277b8     serialport.obj
 0002:000087e0       $cppxdata$??_G_WriteQueue@@QEAAPEAXI@Z 00000001800277e0     serialport.obj
 0002:00008808       $cppxdata$?newQForFD@@YAPEAU_WriteQueue@@H@Z 0000000180027808     serialport.obj
 0002:00008830       $cppxdata$??0_WriteQueue@@QEAA@H@Z 0000000180027830     serialport.obj
 0002:00008858       $cppxdata$??1?$Persistent@VObject@v8@@V?$NonCopyablePersistentTraits@VObject@v8@@@2@@Nan@@QEAA@XZ 0000000180027858     serialport.obj
 0002:00008880       $cppxdata$?Call_@Callback@Nan@@AEBA?AV?$Local@VValue@v8@@@v8@@PEAVIsolate@4@V?$Local@VObject@v8@@@4@HQEAV34@@Z 0000000180027880     serialport.obj
 0002:000088a8       $cppxdata$??0Callback@Nan@@QEAA@AEBV?$Local@VFunction@v8@@@v8@@@Z 00000001800278a8     serialport.obj
 0002:000088d0       $cppxdata$??1HandleScope@Nan@@QEAA@XZ 00000001800278d0     serialport.obj
 0002:000088f8       $cppxdata$??1EscapableHandleScope@Nan@@QEAA@XZ 00000001800278f8     serialport.obj
 0002:00008920       $cppxdata$?New@?$Factory@VFunctionTemplate@v8@@@imp@Nan@@SA?AV?$Local@VFunctionTemplate@v8@@@v8@@P6AXAEBV?$FunctionCallbackInfo@VValue@v8@@@3@@ZV?$Local@VValue@v8@@@5@V?$Local@VSignature@v8@@@5@@Z 0000000180027920     serialport.obj
 0002:00008988       $cppxdata$??$_Buynode@AEBH@?$_List_buy@HV?$allocator@H@std@@@std@@QEAAPEAU?$_List_node@HPEAX@1@PEAU21@0AEBH@Z 0000000180027988     serialport_win.obj
 0002:000089b0       $cppxdata$??1?$_List_buy@HV?$allocator@H@std@@@std@@QEAA@XZ 00000001800279b0     serialport_win.obj
 0002:000089d8       $cppxdata$?EIO_AfterWatchPort@@YAXPEAUuv_work_s@@@Z 00000001800279d8     serialport_win.obj
 0002:00008a00       $cppxdata$?DisposeWatchPortCallbacks@@YAXPEAUWatchPortBaton@@@Z 0000000180027a00     serialport_win.obj
 0002:00008a28       $cppxdata$??__Fg_closingHandles@@YAXXZ 0000000180027a28     serialport_win.obj
 0002:00008a50       $cppxdata$??__Eg_closingHandles@@YAXXZ 0000000180027a50     serialport_win.obj
 0002:00008a78       $cppxdata$?Error@Nan@@YA?AV?$Local@VValue@v8@@@v8@@PEBD@Z 0000000180027a78     serialport_win.obj
 0002:00008aa0       $cppxdata$?EIO_List@@YAXPEAUuv_work_s@@@Z 0000000180027aa0     serialport_win.obj
 0002:00008ac8       $cppxdata$?UsingQueryDosDevice@CEnumerateSerial@@SAHAEAV?$vector@IV?$allocator@I@std@@@std@@@Z 0000000180027ac8     enumser.obj
 0002:00008fa0       $unwind$?FunctionCallbackWrapper@imp@Nan@@YAXAEBV?$FunctionCallbackInfo@VValue@v8@@@v8@@@Z 0000000180027fa0     serialport.obj
 0002:00008fa0       $unwind$_setargv           0000000180027fa0     LIBCMT:stdargv.obj
 0002:00008fb0       $unwind$?New@?$Factory@VFunctionTemplate@v8@@@imp@Nan@@SA?AV?$Local@VFunctionTemplate@v8@@@v8@@P6AXAEBV?$FunctionCallbackInfo@VValue@v8@@@3@@ZV?$Local@VValue@v8@@@5@V?$Local@VSignature@v8@@@5@@Z 0000000180027fb0     serialport.obj
 0002:00008fc8       $stateUnwindMap$?New@?$Factory@VFunctionTemplate@v8@@@imp@Nan@@SA?AV?$Local@VFunctionTemplate@v8@@@v8@@P6AXAEBV?$FunctionCallbackInfo@VValue@v8@@@3@@ZV?$Local@VValue@v8@@@5@V?$Local@VSignature@v8@@@5@@Z 0000000180027fc8     serialport.obj
 0002:00008fd8       $ip2state$?New@?$Factory@VFunctionTemplate@v8@@@imp@Nan@@SA?AV?$Local@VFunctionTemplate@v8@@@v8@@P6AXAEBV?$FunctionCallbackInfo@VValue@v8@@@3@@ZV?$Local@VValue@v8@@@5@V?$Local@VSignature@v8@@@5@@Z 0000000180027fd8     serialport.obj
 0002:00008ff0       $unwind$??1EscapableHandleScope@Nan@@QEAA@XZ 0000000180027ff0     serialport.obj
 0002:00009000       $stateUnwindMap$??1EscapableHandleScope@Nan@@QEAA@XZ 0000000180028000     serialport.obj
 0002:00009010       $ip2state$??1EscapableHandleScope@Nan@@QEAA@XZ 0000000180028010     serialport.obj
 0002:00009018       $unwind$??1HandleScope@Nan@@QEAA@XZ 0000000180028018     serialport.obj
 0002:00009028       $stateUnwindMap$??1HandleScope@Nan@@QEAA@XZ 0000000180028028     serialport.obj
 0002:00009030       $ip2state$??1HandleScope@Nan@@QEAA@XZ 0000000180028030     serialport.obj
 0002:00009038       $unwind$??0Callback@Nan@@QEAA@AEBV?$Local@VFunction@v8@@@v8@@@Z 0000000180028038     serialport.obj
 0002:00009050       $stateUnwindMap$??0Callback@Nan@@QEAA@AEBV?$Local@VFunction@v8@@@v8@@@Z 0000000180028050     serialport.obj
 0002:00009090       $ip2state$??0Callback@Nan@@QEAA@AEBV?$Local@VFunction@v8@@@v8@@@Z 0000000180028090     serialport.obj
 0002:000090c8       $unwind$?Call_@Callback@Nan@@AEBA?AV?$Local@VValue@v8@@@v8@@PEAVIsolate@4@V?$Local@VObject@v8@@@4@HQEAV34@@Z 00000001800280c8     serialport.obj
 0002:000090dc       $stateUnwindMap$?Error@Nan@@YA?AV?$Local@VValue@v8@@@v8@@PEBD@Z 00000001800280dc     serialport_win.obj
 0002:000090dc       $stateUnwindMap$?Call_@Callback@Nan@@AEBA?AV?$Local@VValue@v8@@@v8@@PEAVIsolate@4@V?$Local@VObject@v8@@@4@HQEAV34@@Z 00000001800280dc     serialport.obj
 0002:00009100       $ip2state$?Call_@Callback@Nan@@AEBA?AV?$Local@VValue@v8@@@v8@@PEAVIsolate@4@V?$Local@VObject@v8@@@4@HQEAV34@@Z 0000000180028100     serialport.obj
 0002:00009118       $unwind$??1?$Persistent@VObject@v8@@V?$NonCopyablePersistentTraits@VObject@v8@@@2@@Nan@@QEAA@XZ 0000000180028118     serialport.obj
 0002:00009128       $stateUnwindMap$??1?$Persistent@VObject@v8@@V?$NonCopyablePersistentTraits@VObject@v8@@@2@@Nan@@QEAA@XZ 0000000180028128     serialport.obj
 0002:00009130       $ip2state$??1?$Persistent@VObject@v8@@V?$NonCopyablePersistentTraits@VObject@v8@@@2@@Nan@@QEAA@XZ 0000000180028130     serialport.obj
 0002:00009138       $unwind$??0_WriteQueue@@QEAA@H@Z 0000000180028138     serialport.obj
 0002:00009148       $stateUnwindMap$??_G_WriteQueue@@QEAAPEAXI@Z 0000000180028148     serialport.obj
 0002:00009148       $stateUnwindMap$??0_WriteQueue@@QEAA@H@Z 0000000180028148     serialport.obj
 0002:00009150       $ip2state$??0_WriteQueue@@QEAA@H@Z 0000000180028150     serialport.obj
 0002:00009168       $unwind$?newQForFD@@YAPEAU_WriteQueue@@H@Z 0000000180028168     serialport.obj
 0002:0000917c       $stateUnwindMap$?newQForFD@@YAPEAU_WriteQueue@@H@Z 000000018002817c     serialport.obj
 0002:00009190       $ip2state$?newQForFD@@YAPEAU_WriteQueue@@H@Z 0000000180028190     serialport.obj
 0002:000091b8       $unwind$??_G_WriteQueue@@QEAAPEAXI@Z 00000001800281b8     serialport.obj
 0002:000091c8       $ip2state$??_G_WriteQueue@@QEAAPEAXI@Z 00000001800281c8     serialport.obj
 0002:000091d0       $unwind$?Open@@YAXAEBV?$FunctionCallbackInfo@VValue@v8@@@Nan@@@Z 00000001800281d0     serialport.obj
 0002:000091ec       $stateUnwindMap$?Open@@YAXAEBV?$FunctionCallbackInfo@VValue@v8@@@Nan@@@Z 00000001800281ec     serialport.obj
 0002:00009280       $ip2state$?Open@@YAXAEBV?$FunctionCallbackInfo@VValue@v8@@@Nan@@@Z 0000000180028280     serialport.obj
 0002:00009328       $unwind$?EIO_AfterOpen@@YAXPEAUuv_work_s@@@Z 0000000180028328     serialport.obj
 0002:00009328       $unwind$?EIO_AfterUpdate@@YAXPEAUuv_work_s@@@Z 0000000180028328     serialport.obj
 0002:00009344       $stateUnwindMap$?EIO_AfterOpen@@YAXPEAUuv_work_s@@@Z 0000000180028344     serialport.obj
 0002:00009344       $stateUnwindMap$?EIO_AfterUpdate@@YAXPEAUuv_work_s@@@Z 0000000180028344     serialport.obj
 0002:000093a0       $ip2state$?EIO_AfterUpdate@@YAXPEAUuv_work_s@@@Z 00000001800283a0     serialport.obj
 0002:000093a0       $ip2state$?EIO_AfterOpen@@YAXPEAUuv_work_s@@@Z 00000001800283a0     serialport.obj
 0002:000093f8       $unwind$?Update@@YAXAEBV?$FunctionCallbackInfo@VValue@v8@@@Nan@@@Z 00000001800283f8     serialport.obj
 0002:00009410       $stateUnwindMap$?Update@@YAXAEBV?$FunctionCallbackInfo@VValue@v8@@@Nan@@@Z 0000000180028410     serialport.obj
 0002:000094a0       $ip2state$?Update@@YAXAEBV?$FunctionCallbackInfo@VValue@v8@@@Nan@@@Z 00000001800284a0     serialport.obj
 0002:00009538       $unwind$?Write@@YAXAEBV?$FunctionCallbackInfo@VValue@v8@@@Nan@@@Z 0000000180028538     serialport.obj
 0002:00009554       $stateUnwindMap$?Write@@YAXAEBV?$FunctionCallbackInfo@VValue@v8@@@Nan@@@Z 0000000180028554     serialport.obj
 0002:000095e0       $ip2state$?Write@@YAXAEBV?$FunctionCallbackInfo@VValue@v8@@@Nan@@@Z 00000001800285e0     serialport.obj
 0002:00009658       $unwind$?EIO_AfterWrite@@YAXPEAUuv_work_s@@@Z 0000000180028658     serialport.obj
 0002:00009674       $stateUnwindMap$?EIO_AfterWrite@@YAXPEAUuv_work_s@@@Z 0000000180028674     serialport.obj
 0002:000096d8       $ip2state$?EIO_AfterWrite@@YAXPEAUuv_work_s@@@Z 00000001800286d8     serialport.obj
 0002:00009710       $unwind$?Close@@YAXAEBV?$FunctionCallbackInfo@VValue@v8@@@Nan@@@Z 0000000180028710     serialport.obj
 0002:00009724       $stateUnwindMap$?Drain@@YAXAEBV?$FunctionCallbackInfo@VValue@v8@@@Nan@@@Z 0000000180028724     serialport.obj
 0002:00009724       $stateUnwindMap$?Flush@@YAXAEBV?$FunctionCallbackInfo@VValue@v8@@@Nan@@@Z 0000000180028724     serialport.obj
 0002:00009724       $stateUnwindMap$?Close@@YAXAEBV?$FunctionCallbackInfo@VValue@v8@@@Nan@@@Z 0000000180028724     serialport.obj
 0002:00009760       $ip2state$?Close@@YAXAEBV?$FunctionCallbackInfo@VValue@v8@@@Nan@@@Z 0000000180028760     serialport.obj
 0002:00009798       $unwind$?EIO_AfterClose@@YAXPEAUuv_work_s@@@Z 0000000180028798     serialport.obj
 0002:000097b4       $stateUnwindMap$?EIO_AfterClose@@YAXPEAUuv_work_s@@@Z 00000001800287b4     serialport.obj
 0002:000097e0       $ip2state$?EIO_AfterClose@@YAXPEAUuv_work_s@@@Z 00000001800287e0     serialport.obj
 0002:00009808       $unwind$?List@@YAXAEBV?$FunctionCallbackInfo@VValue@v8@@@Nan@@@Z 0000000180028808     serialport.obj
 0002:0000981c       $stateUnwindMap$?List@@YAXAEBV?$FunctionCallbackInfo@VValue@v8@@@Nan@@@Z 000000018002881c     serialport.obj
 0002:00009870       $ip2state$?List@@YAXAEBV?$FunctionCallbackInfo@VValue@v8@@@Nan@@@Z 0000000180028870     serialport.obj
 0002:000098c8       $unwind$__lock_fhandle$fin$0 00000001800288c8     LIBCMT:osfinfo.obj
 0002:000098c8       $unwind$?dtor$2@?0???__Eg_closingHandles@@YAXXZ@4HA 00000001800288c8     serialport_win.obj
 0002:000098c8       $unwind$?dtor$1@?0??UsingQueryDosDevice@CEnumerateSerial@@SAHAEAV?$vector@IV?$allocator@I@std@@@std@@@Z@4HA 00000001800288c8     enumser.obj
 0002:000098c8       $unwind$fclose$fin$0       00000001800288c8     LIBCMT:fclose.obj
 0002:000098c8       $unwind$_write$fin$0       00000001800288c8     LIBCMT:write.obj
 0002:000098c8       $unwind$?dtor$3@?0???__Eg_closingHandles@@YAXXZ@4HA 00000001800288c8     serialport_win.obj
 0002:000098c8       $unwind$?dtor$0@?0??_Copy@?$basic_string@DU?$char_traits@D@std@@V?$allocator@D@2@@std@@QEAAX_K0@Z@4HA 00000001800288c8     serialport.obj
 0002:000098c8       $unwind$doexit$fin$0       00000001800288c8     LIBCMT:crt0dat.obj
 0002:000098c8       $unwind$_initptd$fin$0     00000001800288c8     LIBCMT:tidtable.obj
 0002:000098c8       $unwind$_initptd$fin$1     00000001800288c8     LIBCMT:tidtable.obj
 0002:000098c8       $unwind$__DestructExceptionObject$filt$0 00000001800288c8     LIBCMT:frame.obj
 0002:000098c8       $unwind$_setmbcp$fin$0     00000001800288c8     LIBCMT:mbctype.obj
 0002:000098c8       $unwind$_ioinit$fin$0      00000001800288c8     LIBCMT:ioinit.obj
 0002:000098c8       $unwind$_locterm$fin$0     00000001800288c8     LIBCMT:wsetloca.obj
 0002:000098c8       $unwind$_commit$fin$0      00000001800288c8     LIBCMT:commit.obj
 0002:000098c8       $unwind$flsall$fin$0       00000001800288c8     LIBCMT:fflush.obj
 0002:000098c8       $unwind$_onexit$fin$0      00000001800288c8     LIBCMT:onexit.obj
 0002:000098c8       $unwind$?dtor$12@?0??EIO_List@@YAXPEAUuv_work_s@@@Z@4HA 00000001800288c8     serialport_win.obj
 0002:000098c8       $unwind$flsall$fin$1       00000001800288c8     LIBCMT:fflush.obj
 0002:000098c8       $unwind$__updatetlocinfo$fin$0 00000001800288c8     LIBCMT:localref.obj
 0002:000098c8       $unwind$__FrameUnwindToState$fin$1 00000001800288c8     LIBCMT:frame.obj
 0002:000098c8       $unwind$?dtor$14@?0??EIO_List@@YAXPEAUuv_work_s@@@Z@4HA 00000001800288c8     serialport_win.obj
 0002:000098c8       $unwind$_mtinitlocknum$fin$0 00000001800288c8     LIBCMT:mlock.obj
 0002:000098c8       $unwind$fwprintf$fin$0     00000001800288c8     LIBCMT:fwprintf.obj
 0002:000098c8       $unwind$fflush$fin$0       00000001800288c8     LIBCMT:fflush.obj
 0002:000098c8       $unwind$_freefls$fin$0     00000001800288c8     LIBCMT:tidtable.obj
 0002:000098c8       $unwind$raise$fin$0        00000001800288c8     LIBCMT:winsig.obj
 0002:000098c8       $unwind$?fin$0@?0??_Type_info_dtor@type_info@@CAXPEAV1@@Z@4HA 00000001800288c8     LIBCMT:typname.obj
 0002:000098c8       $unwind$_freefls$fin$1     00000001800288c8     LIBCMT:tidtable.obj
 0002:000098c8       $unwind$?dtor$2@?0???$_Buynode@AEBH@?$_List_buy@HV?$allocator@H@std@@@std@@QEAAPEAU?$_List_node@HPEAX@1@PEAU21@0AEBH@Z@4HA 00000001800288c8     serialport_win.obj
 0002:000098c8       $unwind$?dtor$22@?0??EIO_List@@YAXPEAUuv_work_s@@@Z@4HA 00000001800288c8     serialport_win.obj
 0002:000098c8       $unwind$?dtor$1@?0???$_Buynode@AEBH@?$_List_buy@HV?$allocator@H@std@@@std@@QEAAPEAU?$_List_node@HPEAX@1@PEAU21@0AEBH@Z@4HA 00000001800288c8     serialport_win.obj
 0002:000098c8       $unwind$__FrameUnwindToState$filt$0 00000001800288c8     LIBCMT:frame.obj
 0002:000098c8       $unwind$?dtor$0@?0???$_Buynode@AEBH@?$_List_buy@HV?$allocator@H@std@@@std@@QEAAPEAU?$_List_node@HPEAX@1@PEAU21@0AEBH@Z@4HA 00000001800288c8     serialport_win.obj
 0002:000098c8       $unwind$__CxxCallCatchBlock$filt$0 00000001800288c8     LIBCMT:frame.obj
 0002:000098c8       $unwind$_IsNonwritableInCurrentImage$filt$0 00000001800288c8     LIBCMT:pesect.obj
 0002:000098c8       $unwind$?dtor$9@?0??List@@YAXAEBV?$FunctionCallbackInfo@VValue@v8@@@Nan@@@Z@4HA 00000001800288c8     serialport.obj
 0002:000098c8       $unwind$__tzset$fin$0      00000001800288c8     LIBCMT:tzset.obj
 0002:000098c8       $unwind$?dtor$23@?0??EIO_List@@YAXPEAUuv_work_s@@@Z@4HA 00000001800288c8     serialport_win.obj
 0002:000098c8       $unwind$?dtor$8@?0??List@@YAXAEBV?$FunctionCallbackInfo@VValue@v8@@@Nan@@@Z@4HA 00000001800288c8     serialport.obj
 0002:000098c8       $unwind$__updatetmbcinfo$fin$0 00000001800288c8     LIBCMT:mbctype.obj
 0002:000098c8       $unwind$setvbuf$fin$0      00000001800288c8     LIBCMT:setvbuf.obj
 0002:000098c8       $unwind$?dtor$24@?0??EIO_List@@YAXPEAUuv_work_s@@@Z@4HA 00000001800288c8     serialport_win.obj
 0002:000098c8       $unwind$_fcloseall$fin$0   00000001800288c8     LIBCMT:closeall.obj
 0002:000098c8       $unwind$_ctrlfp$filt$0     00000001800288c8     LIBCMT:fpctrl.obj
 0002:000098c8       $unwind$?dtor$13@?0??EIO_List@@YAXPEAUuv_work_s@@@Z@4HA 00000001800288c8     serialport_win.obj
 0002:000098c8       $unwind$_close$fin$0       00000001800288c8     LIBCMT:close.obj
 0002:000098c8       $unwind$_CRT_INIT$fin$0    00000001800288c8     LIBCMT:dllcrt0.obj
 0002:000098c8       $unwind$_lseeki64$fin$0    00000001800288c8     LIBCMT:lseeki64.obj
 0002:000098c8       $unwind$__DllMainCRTStartup$filt$0 00000001800288c8     LIBCMT:dllcrt0.obj
 0002:000098c8       $unwind$_isindst$fin$0     00000001800288c8     LIBCMT:tzset.obj
 0002:000098d0       $unwind$?EIO_AfterList@@YAXPEAUuv_work_s@@@Z 00000001800288d0     serialport.obj
 0002:000098f0       $stateUnwindMap$?EIO_AfterList@@YAXPEAUuv_work_s@@@Z 00000001800288f0     serialport.obj
 0002:00009930       $ip2state$?EIO_AfterList@@YAXPEAUuv_work_s@@@Z 0000000180028930     serialport.obj
 0002:00009968       $unwind$??1ListResultItem@@QEAA@XZ 0000000180028968     serialport.obj
 0002:0000997c       $stateUnwindMap$??1ListResultItem@@QEAA@XZ 000000018002897c     serialport.obj
 0002:000099c0       $ip2state$??1ListResultItem@@QEAA@XZ 00000001800289c0     serialport.obj
 0002:00009a00       $unwind$?Flush@@YAXAEBV?$FunctionCallbackInfo@VValue@v8@@@Nan@@@Z 0000000180028a00     serialport.obj
 0002:00009a18       $ip2state$?Flush@@YAXAEBV?$FunctionCallbackInfo@VValue@v8@@@Nan@@@Z 0000000180028a18     serialport.obj
 0002:00009a50       $unwind$?EIO_AfterSet@@YAXPEAUuv_work_s@@@Z 0000000180028a50     serialport.obj
 0002:00009a50       $unwind$?EIO_AfterFlush@@YAXPEAUuv_work_s@@@Z 0000000180028a50     serialport.obj
 0002:00009a50       $unwind$?EIO_AfterDrain@@YAXPEAUuv_work_s@@@Z 0000000180028a50     serialport.obj
 0002:00009a68       $stateUnwindMap$?EIO_AfterDrain@@YAXPEAUuv_work_s@@@Z 0000000180028a68     serialport.obj
 0002:00009a68       $stateUnwindMap$?EIO_AfterSet@@YAXPEAUuv_work_s@@@Z 0000000180028a68     serialport.obj
 0002:00009a68       $stateUnwindMap$?EIO_AfterFlush@@YAXPEAUuv_work_s@@@Z 0000000180028a68     serialport.obj
 0002:00009a90       $ip2state$?EIO_AfterSet@@YAXPEAUuv_work_s@@@Z 0000000180028a90     serialport.obj
 0002:00009a90       $ip2state$?EIO_AfterFlush@@YAXPEAUuv_work_s@@@Z 0000000180028a90     serialport.obj
 0002:00009a90       $ip2state$?EIO_AfterDrain@@YAXPEAUuv_work_s@@@Z 0000000180028a90     serialport.obj
 0002:00009ab8       $unwind$?Set@@YAXAEBV?$FunctionCallbackInfo@VValue@v8@@@Nan@@@Z 0000000180028ab8     serialport.obj
 0002:00009ad0       $stateUnwindMap$?Set@@YAXAEBV?$FunctionCallbackInfo@VValue@v8@@@Nan@@@Z 0000000180028ad0     serialport.obj
 0002:00009b20       $ip2state$?Set@@YAXAEBV?$FunctionCallbackInfo@VValue@v8@@@Nan@@@Z 0000000180028b20     serialport.obj
 0002:00009b68       $unwind$?Drain@@YAXAEBV?$FunctionCallbackInfo@VValue@v8@@@Nan@@@Z 0000000180028b68     serialport.obj
 0002:00009b80       $ip2state$?Drain@@YAXAEBV?$FunctionCallbackInfo@VValue@v8@@@Nan@@@Z 0000000180028b80     serialport.obj
 0002:00009bb8       $unwind$init               0000000180028bb8     serialport.obj
 0002:00009bcc       $stateUnwindMap$init       0000000180028bcc     serialport.obj
 0002:00009cb0       $ip2state$init             0000000180028cb0     serialport.obj
 0002:00009d48       $unwind$strncpy_s          0000000180028d48     LIBCMT:strncpy_s.obj
 0002:00009d48       $unwind$?FinalizerCallback@@YAXPEADPEAX@Z 0000000180028d48     serialport_win.obj
 0002:00009d48       $unwind$strcpy_s           0000000180028d48     LIBCMT:strcpy_s.obj
 0002:00009d48       $unwind$??1?$CDhComPtr@UIEnumVARIANT@@@@QEAA@XZ 0000000180028d48     serialport_win.obj
 0002:00009d48       $unwind$_callnewh          0000000180028d48     LIBCMT:handler.obj
 0002:00009d48       $unwind$??1?$CDhComPtr@UIDispatch@@@@QEAA@XZ 0000000180028d48     serialport_win.obj
 0002:00009d48       $unwind$_set_statfp        0000000180028d48     LIBCMT:fpctrl.obj
 0002:00009d48       $unwind$__raise_securityfailure 0000000180028d48     LIBCMT:gs_report.obj
 0002:00009d48       $unwind$??1CAutoHeapAlloc@@QEAA@XZ 0000000180028d48     enumser.obj
 0002:00009d48       $unwind$_amsg_exit         0000000180028d48     LIBCMT:crt0dat.obj
 0002:00009d48       $unwind$?__GetUnwindTryBlock@@YAHPEA_KPEAU_xDISPATCHER_CONTEXT@@PEBU_s_FuncInfo@@@Z 0000000180028d48     LIBCMT:ehstate.obj
 0002:00009d48       $unwind$__crtExitProcess   0000000180028d48     LIBCMT:crt0dat.obj
 0002:00009d48       $unwind$__crtCorExitProcess 0000000180028d48     LIBCMT:crt0dat.obj
 0002:00009d48       $unwind$_cinit             0000000180028d48     LIBCMT:crt0dat.obj
 0002:00009d48       $unwind$__onexitinit       0000000180028d48     LIBCMT:onexit.obj
 0002:00009d48       $unwind$??1?$vector@IV?$allocator@I@std@@@std@@QEAA@XZ 0000000180028d48     serialport_win.obj
 0002:00009d48       $unwind$wcscat_s           0000000180028d48     LIBCMT:wcscat_s.obj
 0002:00009d48       $unwind$??1?$basic_string@DU?$char_traits@D@std@@V?$allocator@D@2@@std@@QEAA@XZ 0000000180028d48     serialport.obj
 0002:00009d48       $unwind$_init_pointers     0000000180028d48     LIBCMT:crt0dat.obj
 0002:00009d48       $unwind$wcscpy_s           0000000180028d48     LIBCMT:wcscpy_s.obj
 0002:00009d48       $unwind$wcsncat_s          0000000180028d48     LIBCMT:wcsncat_s.obj
 0002:00009d48       $unwind$_SetThrowImageBase 0000000180028d48     LIBCMT:trnsctrl.obj
 0002:00009d48       $unwind$??0bad_alloc@std@@QEAA@AEBV01@@Z 0000000180028d48     libcpmt:xthrow.obj
 0002:00009d48       $unwind$write_char         0000000180028d48     LIBCMT:woutput.obj
 0002:00009d48       $unwind$??0logic_error@std@@QEAA@AEBV01@@Z 0000000180028d48     libcpmt:xthrow.obj
 0002:00009d48       $unwind$??0length_error@std@@QEAA@AEBV01@@Z 0000000180028d48     libcpmt:xthrow.obj
 0002:00009d48       $unwind$__crtIsPackagedApp 0000000180028d48     LIBCMT:winapisupp.obj
 0002:00009d48       $unwind$__crtUnhandledException 0000000180028d48     LIBCMT:winapisupp.obj
 0002:00009d48       $unwind$_mtinit            0000000180028d48     LIBCMT:tidtable.obj
 0002:00009d48       $unwind$??0out_of_range@std@@QEAA@AEBV01@@Z 0000000180028d48     libcpmt:xthrow.obj
 0002:00009d48       $unwind$__crtTerminateProcess 0000000180028d48     LIBCMT:winapisupp.obj
 0002:00009d48       $unwind$_SetImageBase      0000000180028d48     LIBCMT:trnsctrl.obj
 0002:00009d48       $unwind$__crtLoadWinApiPointers 0000000180028d48     LIBCMT:winapisupp.obj
 0002:00009d48       $unwind$??0_LocaleUpdate@@QEAA@PEAUlocaleinfo_struct@@@Z 0000000180028d48     LIBCMT:strnicmp.obj
 0002:00009d48       $unwind$ConvertVariantTimeToTimeT 0000000180028d48     disphelper.obj
 0002:00009d48       $unwind$__GSHandlerCheckCommon 0000000180028d48     LIBCMT:gshandler.obj
 0002:00009d48       $unwind$_freeptd           0000000180028d48     LIBCMT:tidtable.obj
 0002:00009d48       $unwind$write_char         0000000180028d48     LIBCMT:output.obj
 0002:00009d48       $unwind$_fflush_nolock     0000000180028d48     LIBCMT:fflush.obj
 0002:00009d48       $unwind$_lock_file         0000000180028d48     LIBCMT:_file.obj
 0002:00009d48       $unwind$_lock_file2        0000000180028d48     LIBCMT:_file.obj
 0002:00009d48       $unwind$wcsncpy_s          0000000180028d48     LIBCMT:wcsncpy_s.obj
 0002:00009d48       $unwind$_freebuf           0000000180028d48     LIBCMT:_freebuf.obj
 0002:00009d48       $unwind$_getbuf            0000000180028d48     LIBCMT:_getbuf.obj
 0002:00009d48       $unwind$_IsExceptionObjectToBeDestroyed 0000000180028d48     LIBCMT:trnsctrl.obj
 0002:00009d48       $unwind$_clrfp             0000000180028d48     LIBCMT:fpctrl.obj
 0002:00009d48       $unwind$_CreateFrameInfo   0000000180028d48     LIBCMT:trnsctrl.obj
 0002:00009d48       $unwind$dhCleanupThreadException 0000000180028d48     disphelper.obj
 0002:00009d48       $unwind$?EIO_Set@@YAXPEAUuv_work_s@@@Z 0000000180028d48     serialport_win.obj
 0002:00009d48       $unwind$??0bad_exception@std@@QEAA@AEBV01@@Z 0000000180028d48     LIBCMT:frame.obj
 0002:00009d48       $unwind$_getptd            0000000180028d48     LIBCMT:tidtable.obj
 0002:00009d48       $unwind$??0exception@std@@QEAA@AEBQEBD@Z 0000000180028d48     LIBCMT:stdexcpt.obj
 0002:00009d48       $unwind$??0exception@std@@QEAA@AEBV01@@Z 0000000180028d48     LIBCMT:stdexcpt.obj
 0002:00009d48       $unwind$__getgmtimebuf     0000000180028d48     LIBCMT:gmtime.obj
 0002:00009d48       $unwind$?_Tidy@exception@std@@AEAAXXZ 0000000180028d48     LIBCMT:stdexcpt.obj
 0002:00009d50       $unwind$??1?$list@PEAUListResultItem@@V?$allocator@PEAUListResultItem@@@std@@@std@@QEAA@XZ 0000000180028d50     serialport.obj
 0002:00009d64       $stateUnwindMap$??1?$list@PEAUListResultItem@@V?$allocator@PEAUListResultItem@@@std@@@std@@QEAA@XZ 0000000180028d64     serialport.obj
 0002:00009d78       $ip2state$??1?$list@PEAUListResultItem@@V?$allocator@PEAUListResultItem@@@std@@@std@@QEAA@XZ 0000000180028d78     serialport.obj
 0002:00009d90       $unwind$??1?$_List_buy@PEAUListResultItem@@V?$allocator@PEAUListResultItem@@@std@@@std@@QEAA@XZ 0000000180028d90     serialport.obj
 0002:00009da0       $stateUnwindMap$??1?$_List_buy@PEAUListResultItem@@V?$allocator@PEAUListResultItem@@@std@@@std@@QEAA@XZ 0000000180028da0     serialport.obj
 0002:00009da8       $ip2state$??1?$_List_buy@PEAUListResultItem@@V?$allocator@PEAUListResultItem@@@std@@@std@@QEAA@XZ 0000000180028da8     serialport.obj
 0002:00009db0       $unwind$__freetlocinfo     0000000180028db0     LIBCMT:localref.obj
 0002:00009db0       $unwind$?__StateFromIp@@YAHPEBU_s_FuncInfo@@PEAU_xDISPATCHER_CONTEXT@@_J@Z 0000000180028db0     LIBCMT:ehstate.obj
 0002:00009db0       $unwind$?assign@?$basic_string@DU?$char_traits@D@std@@V?$allocator@D@2@@std@@QEAAAEAV12@AEBV12@_K1@Z 0000000180028db0     serialport.obj
 0002:00009db0       $unwind$_gmtime64_s        0000000180028db0     LIBCMT:gmtime64.obj
 0002:00009db0       $unwind$?setSBCS@@YAXPEAUthreadmbcinfostruct@@@Z 0000000180028db0     LIBCMT:mbctype.obj
 0002:00009db0       $unwind$_XcptFilter        0000000180028db0     LIBCMT:winxfltr.obj
 0002:00009db0       $unwind$xtow_s             0000000180028db0     LIBCMT:xtows.obj
 0002:00009db0       $unwind$_initterm          0000000180028db0     LIBCMT:crt0dat.obj
 0002:00009db0       $unwind$_mtdeletelocks     0000000180028db0     LIBCMT:mlock.obj
 0002:00009dc4       $unwind$realloc            0000000180028dc4     LIBCMT:realloc.obj
 0002:00009dc4       $unwind$_localtime64       0000000180028dc4     LIBCMT:loctim64.obj
 0002:00009dc4       $unwind$malloc             0000000180028dc4     LIBCMT:malloc.obj
 0002:00009dc4       $unwind$_exception_enabled 0000000180028dc4     LIBCMT:libm_error.obj
 0002:00009dc4       $unwind$_lseeki64_nolock   0000000180028dc4     LIBCMT:lseeki64.obj
 0002:00009dc4       $unwind$_DllMainCRTStartup 0000000180028dc4     LIBCMT:dllcrt0.obj
 0002:00009dc4       $unwind$memcpy_s           0000000180028dc4     LIBCMT:memcpy_s.obj
 0002:00009dc4       $unwind$_recalloc          0000000180028dc4     LIBCMT:recalloc.obj
 0002:00009dc4       $unwind$_getenv_helper_nolock 0000000180028dc4     LIBCMT:getenv.obj
 0002:00009dc4       $unwind$_mtinitlocks       0000000180028dc4     LIBCMT:mlock.obj
 0002:00009dc4       $unwind$_gmtime64          0000000180028dc4     LIBCMT:gmtime64.obj
 0002:00009dc4       $unwind$_ioterm            0000000180028dc4     LIBCMT:ioinit.obj
 0002:00009dc4       $unwind$_flush             0000000180028dc4     LIBCMT:fflush.obj
 0002:00009dc4       $unwind$?assign@?$basic_string@DU?$char_traits@D@std@@V?$allocator@D@2@@std@@QEAAAEAV12@PEBD_K@Z 0000000180028dc4     serialport.obj
 0002:00009dd4       $unwind$?__SetUnwindTryBlock@@YAXPEA_KPEAU_xDISPATCHER_CONTEXT@@PEBU_s_FuncInfo@@H@Z 0000000180028dd4     LIBCMT:ehstate.obj
 0002:00009dd4       $unwind$_initp_misc_cfltcvt_tab 0000000180028dd4     LIBCMT:cmiscdat.obj
 0002:00009dd4       $unwind$??_Glength_error@std@@UEAAPEAXI@Z 0000000180028dd4     libcpmt:xthrow.obj
 0002:00009dd4       $unwind$_close_nolock      0000000180028dd4     LIBCMT:close.obj
 0002:00009dd4       $unwind$_updatetlocinfoEx_nolock 0000000180028dd4     LIBCMT:localref.obj
 0002:00009dd4       $unwind$??_Glogic_error@std@@UEAAPEAXI@Z 0000000180028dd4     libcpmt:xthrow.obj
 0002:00009dd4       $unwind$__initstdio        0000000180028dd4     LIBCMT:_file.obj
 0002:00009dd4       $unwind$??_Gbad_alloc@std@@UEAAPEAXI@Z 0000000180028dd4     libcpmt:xthrow.obj
 0002:00009dd4       $unwind$_lock              0000000180028dd4     LIBCMT:mlock.obj
 0002:00009dd4       $unwind$??_Gbad_exception@std@@UEAAPEAXI@Z 0000000180028dd4     LIBCMT:frame.obj
 0002:00009dd4       $unwind$__freeCrtMemory    0000000180028dd4     LIBCMT:crt0dat.obj
 0002:00009dd4       $unwind$_fptostr           0000000180028dd4     LIBCMT:_fptostr.obj
 0002:00009dd4       $unwind$_FindAndUnlinkFrame 0000000180028dd4     LIBCMT:trnsctrl.obj
 0002:00009dd4       $unwind$_getptd_noexit     0000000180028dd4     LIBCMT:tidtable.obj
 0002:00009dd4       $unwind$_dosmaperr         0000000180028dd4     LIBCMT:dosmap.obj
 0002:00009dd4       $unwind$??_Gtype_info@@UEAAPEAXI@Z 0000000180028dd4     LIBCMT:typinfo.obj
 0002:00009dd4       $unwind$_calloc_impl       0000000180028dd4     LIBCMT:calloc_impl.obj
 0002:00009dd4       $unwind$_initterm_e        0000000180028dd4     LIBCMT:crt0dat.obj
 0002:00009dd4       $unwind$_RTC_Terminate     0000000180028dd4     LIBCMT:initsect.obj
 0002:00009dd4       $unwind$_fclose_nolock     0000000180028dd4     LIBCMT:fclose.obj
 0002:00009dd4       $unwind$??4exception@std@@QEAAAEAV01@AEBV01@@Z 0000000180028dd4     LIBCMT:stdexcpt.obj
 0002:00009dd4       $unwind$??_Gexception@std@@UEAAPEAXI@Z 0000000180028dd4     LIBCMT:stdexcpt.obj
 0002:00009dd4       $unwind$??_Gout_of_range@std@@UEAAPEAXI@Z 0000000180028dd4     libcpmt:xthrow.obj
 0002:00009dd4       $unwind$_RTC_Initialize    0000000180028dd4     LIBCMT:initsect.obj
 0002:00009dd4       $unwind$?erase@?$basic_string@DU?$char_traits@D@std@@V?$allocator@D@2@@std@@QEAAAEAV12@_K0@Z 0000000180028dd4     serialport.obj
 0002:00009de0       $unwind$?_Copy@?$basic_string@DU?$char_traits@D@std@@V?$allocator@D@2@@std@@QEAAX_K0@Z 0000000180028de0     serialport.obj
 0002:00009df8       $stateUnwindMap$?_Copy@?$basic_string@DU?$char_traits@D@std@@V?$allocator@D@2@@std@@QEAAX_K0@Z 0000000180028df8     serialport.obj
 0002:00009e00       $ip2state$?_Copy@?$basic_string@DU?$char_traits@D@std@@V?$allocator@D@2@@std@@QEAAX_K0@Z 0000000180028e00     serialport.obj
 0002:00009e18       $unwind$?Error@Nan@@YA?AV?$Local@VValue@v8@@@v8@@PEBD@Z 0000000180028e18     serialport_win.obj
 0002:00009e30       $ip2state$?Error@Nan@@YA?AV?$Local@VValue@v8@@@v8@@PEBD@Z 0000000180028e30     serialport_win.obj
 0002:00009e48       $unwind$??__Eg_closingHandles@@YAXXZ 0000000180028e48     serialport_win.obj
 0002:00009e58       $stateUnwindMap$??__Eg_closingHandles@@YAXXZ 0000000180028e58     serialport_win.obj
 0002:00009e78       $ip2state$??__Eg_closingHandles@@YAXXZ 0000000180028e78     serialport_win.obj
 0002:00009ea0       $unwind$??__Fg_closingHandles@@YAXXZ 0000000180028ea0     serialport_win.obj
 0002:00009eb4       $stateUnwindMap$??__Fg_closingHandles@@YAXXZ 0000000180028eb4     serialport_win.obj
 0002:00009ec8       $ip2state$??__Fg_closingHandles@@YAXXZ 0000000180028ec8     serialport_win.obj
 0002:00009ee0       $unwind$_cfltcvt_l         0000000180028ee0     LIBCMT:cvt.obj
 0002:00009ee0       $unwind$_invalid_parameter_noinfo 0000000180028ee0     LIBCMT:invarg.obj
 0002:00009ee0       $unwind$_vswprintf_c_l     0000000180028ee0     LIBCMT:vswprnc.obj
 0002:00009ee0       $unwind$_itow_s            0000000180028ee0     LIBCMT:xtows.obj
 0002:00009ee0       $unwind$strtol             0000000180028ee0     LIBCMT:strtol.obj
 0002:00009ee0       $unwind$?ErrorCodeToString@@YAXPEBDHPEAD@Z 0000000180028ee0     serialport_win.obj
 0002:00009ee0       $unwind$wctomb_s           0000000180028ee0     LIBCMT:wctomb.obj
 0002:00009ee8       $unwind$?EIO_Open@@YAXPEAUuv_work_s@@@Z 0000000180028ee8     serialport_win.obj
 0002:00009f04       $chain$0$?EIO_Open@@YAXPEAUuv_work_s@@@Z 0000000180028f04     serialport_win.obj
 0002:00009f18       $chain$1$?EIO_Open@@YAXPEAUuv_work_s@@@Z 0000000180028f18     serialport_win.obj
 0002:00009f28       $unwind$?EIO_WatchPort@@YAXPEAUuv_work_s@@@Z 0000000180028f28     serialport_win.obj
 0002:00009f38       $unwind$?IsClosingHandle@@YA_NH@Z 0000000180028f38     serialport_win.obj
 0002:00009f40       $chain$0$?IsClosingHandle@@YA_NH@Z 0000000180028f40     serialport_win.obj
 0002:00009f54       $chain$1$?IsClosingHandle@@YA_NH@Z 0000000180028f54     serialport_win.obj
 0002:00009f68       $chain$2$?IsClosingHandle@@YA_NH@Z 0000000180028f68     serialport_win.obj
 0002:00009f78       $chain$4$?IsClosingHandle@@YA_NH@Z 0000000180028f78     serialport_win.obj
 0002:00009f90       $unwind$?DisposeWatchPortCallbacks@@YAXPEAUWatchPortBaton@@@Z 0000000180028f90     serialport_win.obj
 0002:00009fa4       $stateUnwindMap$?DisposeWatchPortCallbacks@@YAXPEAUWatchPortBaton@@@Z 0000000180028fa4     serialport_win.obj
 0002:00009fd8       $ip2state$?DisposeWatchPortCallbacks@@YAXPEAUWatchPortBaton@@@Z 0000000180028fd8     serialport_win.obj
 0002:0000a010       $unwind$?EIO_AfterWatchPort@@YAXPEAUuv_work_s@@@Z 0000000180029010     serialport_win.obj
 0002:0000a028       $stateUnwindMap$?EIO_AfterWatchPort@@YAXPEAUuv_work_s@@@Z 0000000180029028     serialport_win.obj
 0002:0000a040       $ip2state$?EIO_AfterWatchPort@@YAXPEAUuv_work_s@@@Z 0000000180029040     serialport_win.obj
 0002:0000a058       $unwind$?AfterOpenSuccess@@YAXHPEAVCallback@Nan@@00@Z 0000000180029058     serialport_win.obj
 0002:0000a070       $unwind$?EIO_Write@@YAXPEAUuv_work_s@@@Z 0000000180029070     serialport_win.obj
 0002:0000a07c       $unwind$?EIO_Close@@YAXPEAUuv_work_s@@@Z 000000018002907c     serialport_win.obj
 0002:0000a088       $unwind$?EIO_List@@YAXPEAUuv_work_s@@@Z 0000000180029088     serialport_win.obj
 0002:0000a0b4       $stateUnwindMap$?EIO_List@@YAXPEAUuv_work_s@@@Z 00000001800290b4     serialport_win.obj
 0002:0000a180       $ip2state$?EIO_List@@YAXPEAUuv_work_s@@@Z 0000000180029180     serialport_win.obj
 0002:0000a2a8       $unwind$?EIO_Drain@@YAXPEAUuv_work_s@@@Z 00000001800292a8     serialport_win.obj
 0002:0000a2a8       $unwind$?EIO_Flush@@YAXPEAUuv_work_s@@@Z 00000001800292a8     serialport_win.obj
 0002:0000a2a8       $unwind$_fassign_l         00000001800292a8     LIBCMT:cvt.obj
 0002:0000a2b0       $unwind$??1?$_List_buy@HV?$allocator@H@std@@@std@@QEAA@XZ 00000001800292b0     serialport_win.obj
 0002:0000a2c0       $stateUnwindMap$??1?$_List_buy@HV?$allocator@H@std@@@std@@QEAA@XZ 00000001800292c0     serialport_win.obj
 0002:0000a2c8       $ip2state$??1?$_List_buy@HV?$allocator@H@std@@@std@@QEAA@XZ 00000001800292c8     serialport_win.obj
 0002:0000a2d0       $unwind$??$_Buynode@AEBH@?$_List_buy@HV?$allocator@H@std@@@std@@QEAAPEAU?$_List_node@HPEAX@1@PEAU21@0AEBH@Z 00000001800292d0     serialport_win.obj
 0002:0000a2e8       $stateUnwindMap$??$_Buynode@AEBH@?$_List_buy@HV?$allocator@H@std@@@std@@QEAAPEAU?$_List_node@HPEAX@1@PEAU21@0AEBH@Z 00000001800292e8     serialport_win.obj
 0002:0000a300       $ip2state$??$_Buynode@AEBH@?$_List_buy@HV?$allocator@H@std@@@std@@QEAAPEAU?$_List_node@HPEAX@1@PEAU21@0AEBH@Z 0000000180029300     serialport_win.obj
 0002:0000a338       $unwind$dhGetObjectEx      0000000180029338     disphelper.obj
 0002:0000a344       $unwind$isdigit            0000000180029344     LIBCMT:_ctype.obj
 0002:0000a344       $unwind$??2@YAPEAX_K@Z     0000000180029344     LIBCMT:new.obj
 0002:0000a344       $unwind$_forcdecpt_l       0000000180029344     LIBCMT:cvt.obj
 0002:0000a344       $unwind$_isleadbyte_l      0000000180029344     LIBCMT:_wctype.obj
 0002:0000a344       $unwind$isleadbyte         0000000180029344     LIBCMT:_wctype.obj
 0002:0000a344       $unwind$dhGetObject        0000000180029344     disphelper.obj
 0002:0000a344       $unwind$_cropzeros_l       0000000180029344     LIBCMT:cvt.obj
 0002:0000a344       $unwind$?getSystemCP@@YAHH@Z 0000000180029344     LIBCMT:mbctype.obj
 0002:0000a34c       $unwind$dhGetValue         000000018002934c     disphelper.obj
 0002:0000a358       $unwind$dhInvokeArray      0000000180029358     disphelper.obj
 0002:0000a370       $unwind$dhGetValueV        0000000180029370     disphelper.obj
 0002:0000a388       $chain$0$dhGetValueV       0000000180029388     disphelper.obj
 0002:0000a39c       $chain$1$dhGetValueV       000000018002939c     disphelper.obj
 0002:0000a39c       $chain$3$dhGetValueV       000000018002939c     disphelper.obj
 0002:0000a3ac       $chain$2$dhGetValueV       00000001800293ac     disphelper.obj
 0002:0000a3ac       $chain$4$dhGetValueV       00000001800293ac     disphelper.obj
 0002:0000a3c0       $unwind$dhInvokeV          00000001800293c0     disphelper.obj
 0002:0000a3dc       $chain$0$dhInvokeV         00000001800293dc     disphelper.obj
 0002:0000a3f0       $chain$1$dhInvokeV         00000001800293f0     disphelper.obj
 0002:0000a400       $unwind$TraverseSubObjects 0000000180029400     disphelper.obj
 0002:0000a41c       $unwind$InternalInvokeV    000000018002941c     disphelper.obj
 0002:0000a43c       $unwind$CreateArgumentArray 000000018002943c     disphelper.obj
 0002:0000a458       $unwind$ExtractArgument    0000000180029458     disphelper.obj
 0002:0000a468       $chain$0$ExtractArgument   0000000180029468     disphelper.obj
 0002:0000a47c       $chain$1$ExtractArgument   000000018002947c     disphelper.obj
 0002:0000a48c       $unwind$dhEnumBeginV       000000018002948c     disphelper.obj
 0002:0000a4a8       $unwind$dhEnumNextObject   00000001800294a8     disphelper.obj
 0002:0000a4c4       $unwind$dhEnumBegin        00000001800294c4     disphelper.obj
 0002:0000a4d0       $unwind$ConvertFileTimeToVariantTime 00000001800294d0     disphelper.obj
 0002:0000a4dc       $unwind$ConvertVariantTimeToFileTime 00000001800294dc     disphelper.obj
 0002:0000a4e8       $unwind$ConvertVariantTimeToSystemTime 00000001800294e8     disphelper.obj
 0002:0000a4f4       $unwind$ConvertTimeTToVariantTime 00000001800294f4     disphelper.obj
 0002:0000a504       $chain$0$ConvertTimeTToVariantTime 0000000180029504     disphelper.obj
 0002:0000a518       $chain$1$ConvertTimeTToVariantTime 0000000180029518     disphelper.obj
 0002:0000a528       $unwind$ConvertAnsiStrToBStr 0000000180029528     disphelper.obj
 0002:0000a534       $chain$0$ConvertAnsiStrToBStr 0000000180029534     disphelper.obj
 0002:0000a548       $chain$2$ConvertAnsiStrToBStr 0000000180029548     disphelper.obj
 0002:0000a548       $chain$4$ConvertAnsiStrToBStr 0000000180029548     disphelper.obj
 0002:0000a55c       $unwind$ConvertBStrToAnsiStr 000000018002955c     disphelper.obj
 0002:0000a568       $chain$0$ConvertBStrToAnsiStr 0000000180029568     disphelper.obj
 0002:0000a57c       $chain$3$ConvertBStrToAnsiStr 000000018002957c     disphelper.obj
 0002:0000a594       $unwind$dhExitEx           0000000180029594     disphelper.obj
 0002:0000a5bc       $unwind$dhFormatExceptionW 00000001800295bc     disphelper.obj
 0002:0000a5d4       $chain$1$dhFormatExceptionW 00000001800295d4     disphelper.obj
 0002:0000a5ec       $chain$2$dhFormatExceptionW 00000001800295ec     disphelper.obj
 0002:0000a5fc       $unwind$?UsingQueryDosDevice@CEnumerateSerial@@SAHAEAV?$vector@IV?$allocator@I@std@@@std@@@Z 00000001800295fc     enumser.obj
 0002:0000a628       $stateUnwindMap$?UsingQueryDosDevice@CEnumerateSerial@@SAHAEAV?$vector@IV?$allocator@I@std@@@std@@@Z 0000000180029628     enumser.obj
 0002:0000a638       $ip2state$?UsingQueryDosDevice@CEnumerateSerial@@SAHAEAV?$vector@IV?$allocator@I@std@@@std@@@Z 0000000180029638     enumser.obj
 0002:0000a660       $unwind$_set_errno_from_matherr 0000000180029660     LIBCMT:fpexcept.obj
 0002:0000a660       $unwind$_GetImageBase      0000000180029660     LIBCMT:trnsctrl.obj
 0002:0000a660       $unwind$_errno             0000000180029660     LIBCMT:dosmap.obj
 0002:0000a660       $unwind$_fileno            0000000180029660     LIBCMT:fileno.obj
 0002:0000a660       $unwind$__doserrno         0000000180029660     LIBCMT:dosmap.obj
 0002:0000a660       $unwind$_GetThrowImageBase 0000000180029660     LIBCMT:trnsctrl.obj
 0002:0000a660       $unwind$_msize             0000000180029660     LIBCMT:msize.obj
 0002:0000a660       $unwind$?__GetCurrentState@@YAHPEA_KPEAU_xDISPATCHER_CONTEXT@@PEBU_s_FuncInfo@@@Z 0000000180029660     LIBCMT:ehstate.obj
 0002:0000a660       $unwind$_isatty            0000000180029660     LIBCMT:isatty.obj
 0002:0000a660       $unwind$_statfp            0000000180029660     LIBCMT:fpctrl.obj
 0002:0000a660       $unwind$_mtterm            0000000180029660     LIBCMT:tidtable.obj
 0002:0000a660       $unwind$??8type_info@@QEBA_NAEBV0@@Z 0000000180029660     LIBCMT:typinfo.obj
 0002:0000a660       $unwind$_initp_eh_hooks    0000000180029660     LIBCMT:hooks.obj
 0002:0000a660       $unwind$_get_timezone      0000000180029660     LIBCMT:timeset.obj
 0002:0000a660       $unwind$_stricmp           0000000180029660     LIBCMT:stricmp.obj
 0002:0000a660       $unwind$_heap_init         0000000180029660     LIBCMT:heapinit.obj
 0002:0000a660       $unwind$__crtInitializeCriticalSectionEx 0000000180029660     LIBCMT:winapisupp.obj
 0002:0000a660       $unwind$__FrameUnwindFilter 0000000180029660     LIBCMT:frame.obj
 0002:0000a660       $unwind$_get_daylight      0000000180029660     LIBCMT:timeset.obj
 0002:0000a660       $unwind$__initmbctable     0000000180029660     LIBCMT:mbctype.obj
 0002:0000a660       $unwind$__crtDownlevelLocaleNameToLCID 0000000180029660     LIBCMT:winapinls.obj
 0002:0000a660       $unwind$_FF_MSGBANNER      0000000180029660     LIBCMT:crt0msg.obj
 0002:0000a660       $unwind$_get_dstbias       0000000180029660     LIBCMT:timeset.obj
 0002:0000a660       $unwind$atexit             0000000180029660     LIBCMT:onexit.obj
 0002:0000a660       $unwind$_get_osfhandle     0000000180029660     LIBCMT:osfinfo.obj
 0002:0000a660       $unwind$?_Reserve@?$vector@IV?$allocator@I@std@@@std@@IEAAX_K@Z 0000000180029660     enumser.obj
 0002:0000a660       $unwind$__endstdio         0000000180029660     LIBCMT:_file.obj
 0002:0000a660       $unwind$__GSHandlerCheck   0000000180029660     LIBCMT:gshandler.obj
 0002:0000a660       $unwind$_strnicmp          0000000180029660     LIBCMT:strnicmp.obj
 0002:0000a660       $unwind$___lc_codepage_func 0000000180029660     LIBCMT:initctyp.obj
 0002:0000a660       $unwind$_invoke_watson     0000000180029660     LIBCMT:invarg.obj
 0002:0000a660       $unwind$__report_rangecheckfailure 0000000180029660     LIBCMT:gs_report.obj
 0002:0000a660       $unwind$_set_error_mode    0000000180029660     LIBCMT:errmode.obj
 0002:0000a660       $unwind$abort              0000000180029660     LIBCMT:abort.obj
 0002:0000a660       $unwind$__termconout       0000000180029660     LIBCMT:initcon.obj
 0002:0000a668       $unwind$?_Reallocate@?$vector@IV?$allocator@I@std@@@std@@IEAAX_K@Z 0000000180029668     enumser.obj
 0002:0000a678       $chain$0$?_Reallocate@?$vector@IV?$allocator@I@std@@@std@@IEAAX_K@Z 0000000180029678     enumser.obj
 0002:0000a68c       $chain$1$?_Reallocate@?$vector@IV?$allocator@I@std@@@std@@IEAAX_K@Z 000000018002968c     enumser.obj
 0002:0000a6a0       $xdatasym                  00000001800296a0     LIBCMT:amdsecgs.obj
 0002:0000a6a8       $xdatasym                  00000001800296a8     LIBCMT:memcpy.obj
 0002:0000a6ac       $unwind$swprintf           00000001800296ac     LIBCMT:wassert.obj
 0002:0000a6b4       $unwind$_wassert           00000001800296b4     LIBCMT:wassert.obj
 0002:0000a6d8       $unwind$_onexit            00000001800296d8     LIBCMT:onexit.obj
 0002:0000a708       $unwind$strstr             0000000180029708     LIBCMT:strstr.obj
 0002:0000a718       $xdatasym                  0000000180029718     LIBCMT:strncpy.obj
 0002:0000a71c       $unwind$strtok             000000018002971c     LIBCMT:strtok.obj
 0002:0000a730       $unwind$_make__time64_t    0000000180029730     LIBCMT:mktime64.obj
 0002:0000a74c       $unwind$_snwprintf         000000018002974c     LIBCMT:snwprint.obj
 0002:0000a74c       $unwind$_snprintf          000000018002974c     LIBCMT:snwprint.obj
 0002:0000a75c       $unwind$_localtime64_s     000000018002975c     LIBCMT:loctim64.obj
 0002:0000a768       $unwind$_strnicmp_l        0000000180029768     LIBCMT:strnicmp.obj
 0002:0000a768       $unwind$?__SehTransFilter@@YAHPEAU_EXCEPTION_POINTERS@@PEAUEHExceptionRecord@@PEA_KPEAU_CONTEXT@@PEAU_xDISPATCHER_CONTEXT@@PEBU_s_FuncInfo@@PEAH@Z 0000000180029768     LIBCMT:strnicmp.obj
 0002:0000a77c       $unwind$_CRT_INIT          000000018002977c     LIBCMT:dllcrt0.obj
 0002:0000a79c       $unwind$__DllMainCRTStartup 000000018002979c     LIBCMT:dllcrt0.obj
 0002:0000a7c8       $xdatasym                  00000001800297c8     LIBCMT:strlen.obj
 0002:0000a7cc       $unwind$_CxxThrowException 00000001800297cc     LIBCMT:throw.obj
 0002:0000a7dc       $unwind$?__FrameUnwindToEmptyState@@YAXPEA_KPEAU_xDISPATCHER_CONTEXT@@PEBU_s_FuncInfo@@@Z 00000001800297dc     LIBCMT:trnsctrl.obj
 0002:0000a7f0       $unwind$_UnwindNestedFrames 00000001800297f0     LIBCMT:trnsctrl.obj
 0002:0000a804       $unwind$_CallSETranslator  0000000180029804     LIBCMT:trnsctrl.obj
 0002:0000a824       $unwind$_CallSETranslator$filt$0 0000000180029824     LIBCMT:trnsctrl.obj
 0002:0000a824       $unwind$_tzset_nolock$fin$0 0000000180029824     LIBCMT:trnsctrl.obj
 0002:0000a82c       $unwind$?_GetEstablisherFrame@@YAPEA_KPEA_KPEAU_xDISPATCHER_CONTEXT@@PEBU_s_FuncInfo@@0@Z 000000018002982c     LIBCMT:trnsctrl.obj
 0002:0000a844       $unwind$__CxxFrameHandler3 0000000180029844     LIBCMT:trnsctrl.obj
 0002:0000a854       $unwind$?_Copy_str@exception@std@@AEAAXPEBD@Z 0000000180029854     LIBCMT:stdexcpt.obj
 0002:0000a864       $unwind$__report_securityfailure 0000000180029864     LIBCMT:gs_report.obj
 0002:0000a86c       $unwind$_putwch_nolock     000000018002986c     LIBCMT:gs_report.obj
 0002:0000a86c       $unwind$__report_gsfailure 000000018002986c     LIBCMT:gs_report.obj
 0002:0000a874       $unwind$__isa_available_init 0000000180029874     LIBCMT:cpu_disp.obj
 0002:0000a888       $unwind$doexit             0000000180029888     LIBCMT:crt0dat.obj
 0002:0000a8b8       $unwind$_NMSG_WRITE        00000001800298b8     LIBCMT:crt0msg.obj
 0002:0000a8dc       $unwind$_call_reportfault  00000001800298dc     LIBCMT:invarg.obj
 0002:0000a8fc       $unwind$_invalid_parameter 00000001800298fc     LIBCMT:invarg.obj
 0002:0000a8fc       $unwind$_setenvp           00000001800298fc     LIBCMT:invarg.obj
 0002:0000a910       $unwind$fflush             0000000180029910     LIBCMT:fflush.obj
 0002:0000a934       $unwind$flsall             0000000180029934     LIBCMT:fflush.obj
 0002:0000a974       $unwind$setvbuf            0000000180029974     LIBCMT:setvbuf.obj
 0002:0000a9a0       $unwind$fwprintf           00000001800299a0     LIBCMT:fwprintf.obj
 0002:0000a9c4       $unwind$_vswprintf_helper  00000001800299c4     LIBCMT:vswprnc.obj
 0002:0000a9dc       $unwind$raise              00000001800299dc     LIBCMT:winsig.obj
 0002:0000aa0c       $unwind$__crtMessageBoxW   0000000180029a0c     LIBCMT:crtmboxw.obj
 0002:0000aa28       $unwind$_calloc_crt        0000000180029a28     LIBCMT:crtheap.obj
 0002:0000aa28       $unwind$_realloc_crt       0000000180029a28     LIBCMT:crtheap.obj
 0002:0000aa28       $unwind$_malloc_crt        0000000180029a28     LIBCMT:crtheap.obj
 0002:0000aa28       $unwind$__TypeMatch        0000000180029a28     LIBCMT:crtheap.obj
 0002:0000aa28       $unwind$__GSHandlerCheck_EH 0000000180029a28     LIBCMT:crtheap.obj
 0002:0000aa28       $unwind$GetTableIndexFromLocaleName 0000000180029a28     LIBCMT:crtheap.obj
 0002:0000aa40       $unwind$__C_specific_handler 0000000180029a40     LIBCMT:chandler.obj
 0002:0000aa5c       $unwind$__free_lconv_num   0000000180029a5c     LIBCMT:free.obj
 0002:0000aa5c       $unwind$free               0000000180029a5c     LIBCMT:free.obj
 0002:0000aa64       $unwind$_ctrlfp            0000000180029a64     LIBCMT:fpctrl.obj
 0002:0000aa8c       $unwind$_call_matherr      0000000180029a8c     LIBCMT:libm_error.obj
 0002:0000aa94       $unwind$_handle_error      0000000180029a94     LIBCMT:libm_error.obj
 0002:0000aab4       $unwind$_flsbuf            0000000180029ab4     LIBCMT:_flsbuf.obj
 0002:0000aac8       $unwind$_output_l          0000000180029ac8     LIBCMT:output.obj
 0002:0000aaec       $unwind$write_string       0000000180029aec     LIBCMT:output.obj
 0002:0000aaec       $unwind$_recalloc_crt      0000000180029aec     LIBCMT:output.obj
 0002:0000aaec       $unwind$write_string       0000000180029aec     LIBCMT:output.obj
 0002:0000ab08       $xdatasym                  0000000180029b08     LIBCMT:memset.obj
 0002:0000ab0c       $unwind$_freefls           0000000180029b0c     LIBCMT:tidtable.obj
 0002:0000ab40       $unwind$_initptd           0000000180029b40     LIBCMT:tidtable.obj
 0002:0000ab74       $unwind$_isindst           0000000180029b74     LIBCMT:tzset.obj
 0002:0000ab94       $unwind$__tzset            0000000180029b94     LIBCMT:tzset.obj
 0002:0000abb4       $unwind$_isindst_nolock    0000000180029bb4     LIBCMT:tzset.obj
 0002:0000abcc       $unwind$_tzset_nolock      0000000180029bcc     LIBCMT:tzset.obj
 0002:0000ac08       $unwind$cvtdate            0000000180029c08     LIBCMT:tzset.obj
 0002:0000ac1c       $unwind$_woutput_l         0000000180029c1c     LIBCMT:woutput.obj
 0002:0000ac40       $unwind$write_multi_char   0000000180029c40     LIBCMT:woutput.obj
 0002:0000ac40       $unwind$write_multi_char   0000000180029c40     LIBCMT:woutput.obj
 0002:0000ac54       $unwind$__updatetlocinfo   0000000180029c54     LIBCMT:localref.obj
 0002:0000ac74       $unwind$__updatetmbcinfo   0000000180029c74     LIBCMT:mbctype.obj
 0002:0000ac98       $unwind$_setmbcp           0000000180029c98     LIBCMT:mbctype.obj
 0002:0000acc8       $unwind$_setmbcp_nolock    0000000180029cc8     LIBCMT:mbctype.obj
 0002:0000ace8       $unwind$?setSBUpLow@@YAXPEAUthreadmbcinfostruct@@@Z 0000000180029ce8     LIBCMT:mbctype.obj
 0002:0000ad04       $unwind$_tolower_l         0000000180029d04     LIBCMT:tolower.obj
 0002:0000ad14       $unwind$_locterm           0000000180029d14     LIBCMT:wsetloca.obj
 0002:0000ad34       $unwind$?strtoxl@@YAKPEAUlocaleinfo_struct@@PEBDPEAPEBDHH@Z 0000000180029d34     LIBCMT:strtol.obj
 0002:0000ad4c       $unwind$_isctype_l         0000000180029d4c     LIBCMT:isctype.obj
 0002:0000ad5c       $unwind$_ioinit            0000000180029d5c     LIBCMT:ioinit.obj
 0002:0000ada4       $unwind$parse_cmdline      0000000180029da4     LIBCMT:stdargv.obj
 0002:0000ada4       $unwind$?_GetRangeOfTrysToCheck@@YAPEBU_s_TryBlockMapEntry@@PEA_KPEBU_s_FuncInfo@@HHPEAI2PEAU_xDISPATCHER_CONTEXT@@@Z 0000000180029da4     LIBCMT:stdargv.obj
 0002:0000adc0       $unwind$__security_init_cookie 0000000180029dc0     LIBCMT:gs_support.obj
 0002:0000adcc       $unwind$__crtGetEnvironmentStringsA 0000000180029dcc     LIBCMT:a_env.obj
 0002:0000adcc       $unwind$_cftof2_l          0000000180029dcc     LIBCMT:a_env.obj
 0002:0000ade4       $unwind$__crtCaptureCurrentContext 0000000180029de4     LIBCMT:winapisupp.obj
 0002:0000adf0       $unwind$__crtCapturePreviousContext 0000000180029df0     LIBCMT:winapisupp.obj
 0002:0000adfc       $unwind$__CxxCallCatchBlock 0000000180029dfc     LIBCMT:frame.obj
 0002:0000ae3c       $unwind$__CxxCallCatchBlock$fin$1 0000000180029e3c     LIBCMT:frame.obj
 0002:0000ae48       $unwind$__FrameUnwindToState 0000000180029e48     LIBCMT:frame.obj
 0002:0000ae84       $unwind$?FindHandler@@YAXPEAUEHExceptionRecord@@PEA_KPEAU_CONTEXT@@PEAU_xDISPATCHER_CONTEXT@@PEBU_s_FuncInfo@@EH1@Z 0000000180029e84     LIBCMT:frame.obj
 0002:0000aea0       $unwind$?CatchIt@@YAXPEAUEHExceptionRecord@@PEA_KPEAU_CONTEXT@@PEAU_xDISPATCHER_CONTEXT@@PEBU_s_FuncInfo@@PEBU_s_HandlerType@@PEBU_s_CatchableType@@PEBU_s_TryBlockMapEntry@@H1EE@Z 0000000180029ea0     LIBCMT:frame.obj
 0002:0000aeb8       $unwind$__BuildCatchObject 0000000180029eb8     LIBCMT:frame.obj
 0002:0000aee4       $unwind$?FindHandlerForForeignException@@YAXPEAUEHExceptionRecord@@PEA_KPEAU_CONTEXT@@PEAU_xDISPATCHER_CONTEXT@@PEBU_s_FuncInfo@@HH1@Z 0000000180029ee4     LIBCMT:frame.obj
 0002:0000aefc       $unwind$__DestructExceptionObject 0000000180029efc     LIBCMT:frame.obj
 0002:0000af1c       $unwind$?IsInExceptionSpec@@YAEPEAUEHExceptionRecord@@PEBU_s_ESTypeList@@@Z 0000000180029f1c     LIBCMT:frame.obj
 0002:0000af38       $unwind$__InternalCxxFrameHandler 0000000180029f38     LIBCMT:frame.obj
 0002:0000af50       $unwind$__BuildCatchObjectHelper 0000000180029f50     LIBCMT:frame.obj
 0002:0000af80       $unwind$?terminate@@YAXXZ  0000000180029f80     LIBCMT:hooks.obj
 0002:0000afa0       $unwind$?_inconsistency@@YAXXZ 0000000180029fa0     LIBCMT:hooks.obj
 0002:0000afc0       $xdatasym                  0000000180029fc0     LIBCMT:strcmp.obj
 0002:0000afc4       $unwind$?_Type_info_dtor@type_info@@CAXPEAV1@@Z 0000000180029fc4     LIBCMT:typname.obj
 0002:0000afe4       $unwind$_cftoe2_l          0000000180029fe4     LIBCMT:cvt.obj
 0002:0000b000       $unwind$_cftoe_l           000000018002a000     LIBCMT:cvt.obj
 0002:0000b018       $unwind$_cftoa_l           000000018002a018     LIBCMT:cvt.obj
 0002:0000b034       $unwind$_cftof_l           000000018002a034     LIBCMT:cvt.obj
 0002:0000b04c       $unwind$_cftog_l           000000018002a04c     LIBCMT:cvt.obj
 0002:0000b064       $unwind$_mtinitlocknum     000000018002a064     LIBCMT:mlock.obj
 0002:0000b08c       $unwind$_IsNonwritableInCurrentImage 000000018002a08c     LIBCMT:pesect.obj
 0002:0000b0b0       $unwind$_ftbuf             000000018002a0b0     LIBCMT:_sftbuf.obj
 0002:0000b0b8       $unwind$_fcloseall         000000018002a0b8     LIBCMT:closeall.obj
 0002:0000b0e0       $unwind$_commit            000000018002a0e0     LIBCMT:commit.obj
 0002:0000b108       $unwind$_write             000000018002a108     LIBCMT:write.obj
 0002:0000b134       $unwind$_write_nolock      000000018002a134     LIBCMT:write.obj
 0002:0000b158       $xdatasym                  000000018002a158     LIBCMT:jmpuwind.obj
 0002:0000b16c       $unwind$__crtCompareStringEx 000000018002a16c     LIBCMT:winapinls.obj
 0002:0000b16c       $unwind$__crtLCMapStringEx 000000018002a16c     LIBCMT:winapinls.obj
 0002:0000b180       $xdatasym                  000000018002a180     LIBCMT:fpsr.obj
 0002:0000b188       $unwind$_raise_exc_ex      000000018002a188     LIBCMT:fpexcept.obj
 0002:0000b19c       $unwind$_lseeki64          000000018002a19c     LIBCMT:lseeki64.obj
 0002:0000b1c8       $unwind$_wctomb_s_l        000000018002a1c8     LIBCMT:wctomb.obj
 0002:0000b1d8       $unwind$_fputwc_nolock     000000018002a1d8     LIBCMT:fputwc.obj
 0002:0000b1f4       $unwind$_mbtowc_l          000000018002a1f4     LIBCMT:mbtowc.obj
 0002:0000b20c       $unwind$__free_lconv_mon   000000018002a20c     LIBCMT:inittime.obj
 0002:0000b20c       $unwind$__free_lc_time     000000018002a20c     LIBCMT:inittime.obj
 0002:0000b214       $unwind$__crtLCMapStringA  000000018002a214     LIBCMT:a_map.obj
 0002:0000b224       $unwind$?__crtLCMapStringA_stat@@YAHPEAUlocaleinfo_struct@@PEB_WKPEBDHPEADHHH@Z 000000018002a224     LIBCMT:a_map.obj
 0002:0000b24c       $unwind$?__crtGetStringTypeA_stat@@YAHPEAUlocaleinfo_struct@@KPEBDHPEAGHH@Z 000000018002a24c     LIBCMT:a_str.obj
 0002:0000b278       $xdatasym                  000000018002a278     LIBCMT:memcmp.obj
 0002:0000b27c       $unwind$_atodbl_l          000000018002a27c     LIBCMT:atodbl.obj
 0002:0000b290       $unwind$__crt_atoflt_l     000000018002a290     LIBCMT:atodbl.obj
 0002:0000b2a8       $xdatasym                  000000018002a2a8     LIBCMT:handlers.obj
 0002:0000b2b0       $unwind$wcschr             000000018002a2b0     LIBCMT:strrchr.obj
 0002:0000b2b0       $unwind$strchr             000000018002a2b0     LIBCMT:strrchr.obj
 0002:0000b2b0       $unwind$strrchr            000000018002a2b0     LIBCMT:strrchr.obj
 0002:0000b2b8       $unwind$_fltout2           000000018002a2b8     LIBCMT:cfout.obj
 0002:0000b2d0       $unwind$__dtold            000000018002a2d0     LIBCMT:cfout.obj
 0002:0000b2d8       $unwind$fclose             000000018002a2d8     LIBCMT:fclose.obj
 0002:0000b2fc       $unwind$_free_osfhnd       000000018002a2fc     LIBCMT:osfinfo.obj
 0002:0000b2fc       $unwind$_stbuf             000000018002a2fc     LIBCMT:osfinfo.obj
 0002:0000b30c       $unwind$__lock_fhandle     000000018002a30c     LIBCMT:osfinfo.obj
 0002:0000b338       $xdatasym                  000000018002a338     LIBCMT:chkstk.obj
 0002:0000b340       $unwind$__wtomb_environ    000000018002a340     LIBCMT:wtombenv.obj
 0002:0000b350       $unwind$_mbsnbicoll_l      000000018002a350     LIBCMT:mbsnbico.obj
 0002:0000b368       $unwind$_flswbuf           000000018002a368     LIBCMT:_flswbuf.obj
 0002:0000b37c       $unwind$_ld12tof           000000018002a37c     LIBCMT:intrncvt.obj
 0002:0000b37c       $unwind$_ld12tod           000000018002a37c     LIBCMT:intrncvt.obj
 0002:0000b3a0       $unwind$__strgtold12_l     000000018002a3a0     LIBCMT:strgtold.obj
 0002:0000b3c4       $unwind$$I10_OUTPUT        000000018002a3c4     LIBCMT:x10fout.obj
 0002:0000b3e8       $unwind$_close             000000018002a3e8     LIBCMT:close.obj
 0002:0000b410       $unwind$?_Xbad_alloc@std@@YAXXZ 000000018002a410     LIBCMT:initcon.obj
 0002:0000b410       $unwind$_cfltcvt           000000018002a410     LIBCMT:initcon.obj
 0002:0000b410       $unwind$?_Xout_of_range@std@@YAXPEBD@Z 000000018002a410     LIBCMT:initcon.obj
 0002:0000b410       $unwind$_raise_exc         000000018002a410     LIBCMT:initcon.obj
 0002:0000b410       $unwind$?_Xlength_error@std@@YAXPEBD@Z 000000018002a410     LIBCMT:initcon.obj
 0002:0000b410       $unwind$__initconout       000000018002a410     LIBCMT:initcon.obj
 0002:0000b418       $unwind$__crtsetenv        000000018002a418     LIBCMT:setenv.obj
 0002:0000b434       $unwind$_strnicoll_l       000000018002a434     LIBCMT:strnicol.obj
 0002:0000b448       $unwind$__crtGetStringTypeA 000000018002a448     LIBCMT:a_cmp.obj
 0002:0000b448       $unwind$__crtCompareStringA 000000018002a448     LIBCMT:a_cmp.obj
 0002:0000b458       $unwind$?__crtCompareStringA_stat@@YAHPEAUlocaleinfo_struct@@PEB_WKPEBDH2HH@Z 000000018002a458     LIBCMT:a_cmp.obj
 0002:0000b478       $unwind$__mtold12          000000018002a478     LIBCMT:mantold.obj
 0002:0000b490       $unwind$_strdup            000000018002a490     LIBCMT:strdup.obj
 0002:0000b4a0       $unwind$_mbschr_l          000000018002a4a0     LIBCMT:mbschr.obj
 0002:0000b4a0       $unwind$_stricmp_l         000000018002a4a0     LIBCMT:mbschr.obj
 0002:0000b4a0       $unwind$?x_ismbbtype_l@@YAHPEAUlocaleinfo_struct@@IHH@Z 000000018002a4a0     LIBCMT:mbschr.obj
 0002:0000b4b0       $unwind$ceil               000000018002a4b0     LIBCMT:ceil.obj
 0002:0000b4b0       $unwind$floor              000000018002a4b0     LIBCMT:ceil.obj
 0002:0000b6a0       .edata                     000000018002a6a0     serialport.exp
 0002:0000b6c8       rgpv                       000000018002a6c8     serialport.exp
 0002:0000b6cc       rgszName                   000000018002a6cc     serialport.exp
 0002:0000b6d0       rgwOrd                     000000018002a6d0     serialport.exp
 0002:0000b6d2       szName                     000000018002a6d2     serialport.exp
 0002:0000b6e2       $N00001                    000000018002a6e2     serialport.exp
 0002:0000beaa       .idata$6                   000000018002aeaa     kernel32:KERNEL32.dll
 0002:0000bec6       .idata$6                   000000018002aec6     user32:USER32.dll
 0002:0000bf02       .idata$6                   000000018002af02     ole32:ole32.dll
 0002:0000bf0c       .idata$6                   000000018002af0c     oleaut32:OLEAUT32.dll
 0002:0000cda4       .idata$6                   000000018002bda4     node:node.dll
 0003:00000000       _assertstring              000000018002d000     LIBCMT:wassert.obj
 0003:00000050       dotdotdot                  000000018002d050     LIBCMT:wassert.obj
 0003:00000058       newline                    000000018002d058     LIBCMT:wassert.obj
 0003:00000060       dblnewline                 000000018002d060     LIBCMT:wassert.obj
 0003:00000090       errtable                   000000018002d090     LIBCMT:dosmap.obj
 0003:000001f8       ErrnoNoMem                 000000018002d1f8     LIBCMT:dosmap.obj
 0003:000001fc       DoserrorNoMem              000000018002d1fc     LIBCMT:dosmap.obj
 0003:000005d0       ?dazSupported@?1??_ctrlfp@@9@9 000000018002d5d0     LIBCMT:fpctrl.obj
 0003:00000610       tzstd                      000000018002d610     LIBCMT:timeset.obj
 0003:00000650       tzdst                      000000018002d650     LIBCMT:timeset.obj
 0003:000006a0       dststart                   000000018002d6a0     LIBCMT:tzset.obj
 0003:000006b0       dstend                     000000018002d6b0     LIBCMT:tzset.obj
 0003:00000b68       __rgctypeflag              000000018002db68     LIBCMT:mbctype.obj
 0003:00000b70       __rgcode_page_info         000000018002db70     LIBCMT:mbctype.obj
 0003:000010b0       _ctype_loc_style           000000018002e0b0     LIBCMT:wsetloca.obj
 0003:00001118       ?isPackaged@?1??__crtIsPackagedApp@@9@9 000000018002e118     LIBCMT:winapisupp.obj
 0003:00001170       _locktable                 000000018002e170     LIBCMT:mlock.obj
 0003:000013b0       ?_names@?1??_get_fname@@9@9 000000018002e3b0     LIBCMT:fpexcept.obj
 0003:00001688       DoubleFormat               000000018002e688     LIBCMT:intrncvt.obj
 0003:000016a0       FloatFormat                000000018002e6a0     LIBCMT:intrncvt.obj
 0003:00001980       _module                    000000018002e980     serialport.obj
 0003:000019c0       f_lngTlsInitBegin          000000018002e9c0     disphelper.obj
 0003:000019c4       f_lngTlsInitEnd            000000018002e9c4     disphelper.obj
 0003:00001ae0       allocator_arg              000000018002eae0     libcpmt:syserror.obj
 0003:00001ae1       piecewise_construct        000000018002eae1     libcpmt:syserror.obj
 0003:00001ae2       _Tuple_alloc               000000018002eae2     libcpmt:xthrow.obj
 0003:00001ae3       ignore                     000000018002eae3     libcpmt:xthrow.obj
 0003:00001ae4       allocator_arg              000000018002eae4     libcpmt:xthrow.obj
 0003:00001ae5       piecewise_construct        000000018002eae5     libcpmt:xthrow.obj
 0003:00001ae8       __proc_attached            000000018002eae8     LIBCMT:dllcrt0.obj
 0003:00001b10       GS_ExceptionRecord         000000018002eb10     LIBCMT:gs_report.obj
 0003:00001bb0       GS_ContextRecord           000000018002ebb0     LIBCMT:gs_report.obj
 0003:00002080       DebuggerWasPresent         000000018002f080     LIBCMT:gs_report.obj
 0003:00002100       ?outmsg@?8??_NMSG_WRITE@@9@9 000000018002f100     LIBCMT:crt0msg.obj
 0003:00002748       ctrlc_action               000000018002f748     LIBCMT:winsig.obj
 0003:00002750       ctrlbreak_action           000000018002f750     LIBCMT:winsig.obj
 0003:00002758       abort_action               000000018002f758     LIBCMT:winsig.obj
 0003:00002760       term_action                000000018002f760     LIBCMT:winsig.obj
 0003:00002768       ConsoleCtrlHandler_Installed 000000018002f768     LIBCMT:winsig.obj
 0003:00002770       ?pfnMessageBox@?1??__crtMessageBoxW@@9@9 000000018002f770     LIBCMT:crtmboxw.obj
 0003:00002778       ?pfnGetActiveWindow@?1??__crtMessageBoxW@@9@9 000000018002f778     LIBCMT:crtmboxw.obj
 0003:00002780       ?pfnGetLastActivePopup@?1??__crtMessageBoxW@@9@9 000000018002f780     LIBCMT:crtmboxw.obj
 0003:00002788       ?pfnGetProcessWindowStation@?1??__crtMessageBoxW@@9@9 000000018002f788     LIBCMT:crtmboxw.obj
 0003:00002790       ?pfnGetUserObjectInformation@?1??__crtMessageBoxW@@9@9 000000018002f790     LIBCMT:crtmboxw.obj
 0003:000027b0       lastTZ                     000000018002f7b0     LIBCMT:tzset.obj
 0003:000027b8       ?first_time@?1??__tzset@@9@9 000000018002f7b8     LIBCMT:tzset.obj
 0003:000027bc       tzapiused                  000000018002f7bc     LIBCMT:tzset.obj
 0003:000027c0       tzinfo                     000000018002f7c0     LIBCMT:tzset.obj
 0003:00002890       fSystemSet                 000000018002f890     LIBCMT:mbctype.obj
 0003:00002aa0       ?_pgmname@?1??_setargv@@9@9 000000018002faa0     LIBCMT:stdargv.obj
 0003:00002bb8       __type_info_root_node      000000018002fbb8     LIBCMT:typname.obj
 0003:00002bd0       lclcritsects               000000018002fbd0     LIBCMT:mlock.obj
 0003:00002e00       g_pfnRtlGenRandom          000000018002fe00     LIBCMT:rand_s.obj
 0003:00002e18       __crtCallProc              000000018002fe18     LIBCMT:winapinls.obj
 0003:00002e20       __enable_percent_n         000000018002fe20     LIBCMT:printf.obj
 0003:00002e78       heap                       000000018002fe78     LIBCMT:undname.obj
 0003:00002eb0       write_queues               000000018002feb0     serialport.obj
 0003:00002ebc       allocator_arg              000000018002febc     serialport.obj
 0003:00002ebd       piecewise_construct        000000018002febd     serialport.obj
 0003:00002ebe       _Tuple_alloc               000000018002febe     serialport_win.obj
 0003:00002ebf       ignore                     000000018002febf     serialport_win.obj
 0003:00002ec0       allocator_arg              000000018002fec0     serialport_win.obj
 0003:00002ec1       piecewise_construct        000000018002fec1     serialport_win.obj
 0003:00002ec2       _Tuple_alloc               000000018002fec2     enumser.obj
 0003:00002ec3       ignore                     000000018002fec3     enumser.obj
 0003:00002ec4       allocator_arg              000000018002fec4     enumser.obj
 0003:00002ec5       piecewise_construct        000000018002fec5     enumser.obj
 0003:00002ee0       g_ExceptionOptions         000000018002fee0     disphelper.obj
 0003:00002f00       f_TlsIdxException          000000018002ff00     disphelper.obj
 0003:00002f04       f_TlsIdxStackCount         000000018002ff04     disphelper.obj
 0004:00000000       $pdata$??__Eg_closingHandles@@YAXXZ 0000000180032000     serialport_win.obj
 0004:0000000c       $pdata$?FunctionCallbackWrapper@imp@Nan@@YAXAEBV?$FunctionCallbackInfo@VValue@v8@@@v8@@@Z 000000018003200c     serialport.obj
 0004:00000018       $pdata$?New@?$Factory@VFunctionTemplate@v8@@@imp@Nan@@SA?AV?$Local@VFunctionTemplate@v8@@@v8@@P6AXAEBV?$FunctionCallbackInfo@VValue@v8@@@3@@ZV?$Local@VValue@v8@@@5@V?$Local@VSignature@v8@@@5@@Z 0000000180032018     serialport.obj
 0004:00000024       $pdata$??1EscapableHandleScope@Nan@@QEAA@XZ 0000000180032024     serialport.obj
 0004:00000030       $pdata$??1HandleScope@Nan@@QEAA@XZ 0000000180032030     serialport.obj
 0004:0000003c       $pdata$??0Callback@Nan@@QEAA@AEBV?$Local@VFunction@v8@@@v8@@@Z 000000018003203c     serialport.obj
 0004:00000048       $pdata$?Call_@Callback@Nan@@AEBA?AV?$Local@VValue@v8@@@v8@@PEAVIsolate@4@V?$Local@VObject@v8@@@4@HQEAV34@@Z 0000000180032048     serialport.obj
 0004:00000054       $pdata$??1?$Persistent@VObject@v8@@V?$NonCopyablePersistentTraits@VObject@v8@@@2@@Nan@@QEAA@XZ 0000000180032054     serialport.obj
 0004:00000060       $pdata$??0_WriteQueue@@QEAA@H@Z 0000000180032060     serialport.obj
 0004:0000006c       $pdata$?newQForFD@@YAPEAU_WriteQueue@@H@Z 000000018003206c     serialport.obj
 0004:00000078       $pdata$??_G_WriteQueue@@QEAAPEAXI@Z 0000000180032078     serialport.obj
 0004:00000084       $pdata$?Open@@YAXAEBV?$FunctionCallbackInfo@VValue@v8@@@Nan@@@Z 0000000180032084     serialport.obj
 0004:00000090       $pdata$?EIO_AfterUpdate@@YAXPEAUuv_work_s@@@Z 0000000180032090     serialport.obj
 0004:00000090       $pdata$?EIO_AfterOpen@@YAXPEAUuv_work_s@@@Z 0000000180032090     serialport.obj
 0004:0000009c       $pdata$?Update@@YAXAEBV?$FunctionCallbackInfo@VValue@v8@@@Nan@@@Z 000000018003209c     serialport.obj
 0004:000000a8       $pdata$?Write@@YAXAEBV?$FunctionCallbackInfo@VValue@v8@@@Nan@@@Z 00000001800320a8     serialport.obj
 0004:000000b4       $pdata$?EIO_AfterWrite@@YAXPEAUuv_work_s@@@Z 00000001800320b4     serialport.obj
 0004:000000c0       $pdata$?Close@@YAXAEBV?$FunctionCallbackInfo@VValue@v8@@@Nan@@@Z 00000001800320c0     serialport.obj
 0004:000000cc       $pdata$?EIO_AfterClose@@YAXPEAUuv_work_s@@@Z 00000001800320cc     serialport.obj
 0004:000000d8       $pdata$?List@@YAXAEBV?$FunctionCallbackInfo@VValue@v8@@@Nan@@@Z 00000001800320d8     serialport.obj
 0004:000000e4       $pdata$?EIO_AfterList@@YAXPEAUuv_work_s@@@Z 00000001800320e4     serialport.obj
 0004:000000f0       $pdata$??1ListResultItem@@QEAA@XZ 00000001800320f0     serialport.obj
 0004:000000fc       $pdata$?Flush@@YAXAEBV?$FunctionCallbackInfo@VValue@v8@@@Nan@@@Z 00000001800320fc     serialport.obj
 0004:00000108       $pdata$?EIO_AfterDrain@@YAXPEAUuv_work_s@@@Z 0000000180032108     serialport.obj
 0004:00000108       $pdata$?EIO_AfterSet@@YAXPEAUuv_work_s@@@Z 0000000180032108     serialport.obj
 0004:00000108       $pdata$?EIO_AfterFlush@@YAXPEAUuv_work_s@@@Z 0000000180032108     serialport.obj
 0004:00000114       $pdata$?Set@@YAXAEBV?$FunctionCallbackInfo@VValue@v8@@@Nan@@@Z 0000000180032114     serialport.obj
 0004:00000120       $pdata$?Drain@@YAXAEBV?$FunctionCallbackInfo@VValue@v8@@@Nan@@@Z 0000000180032120     serialport.obj
 0004:0000012c       $pdata$init                000000018003212c     serialport.obj
 0004:00000138       $pdata$??1?$basic_string@DU?$char_traits@D@std@@V?$allocator@D@2@@std@@QEAA@XZ 0000000180032138     serialport.obj
 0004:00000144       $pdata$??1?$list@PEAUListResultItem@@V?$allocator@PEAUListResultItem@@@std@@@std@@QEAA@XZ 0000000180032144     serialport.obj
 0004:00000150       $pdata$??1?$_List_buy@PEAUListResultItem@@V?$allocator@PEAUListResultItem@@@std@@@std@@QEAA@XZ 0000000180032150     serialport.obj
 0004:0000015c       $pdata$?assign@?$basic_string@DU?$char_traits@D@std@@V?$allocator@D@2@@std@@QEAAAEAV12@AEBV12@_K1@Z 000000018003215c     serialport.obj
 0004:00000168       $pdata$?assign@?$basic_string@DU?$char_traits@D@std@@V?$allocator@D@2@@std@@QEAAAEAV12@PEBD_K@Z 0000000180032168     serialport.obj
 0004:00000174       $pdata$?erase@?$basic_string@DU?$char_traits@D@std@@V?$allocator@D@2@@std@@QEAAAEAV12@_K0@Z 0000000180032174     serialport.obj
 0004:00000180       $pdata$?_Copy@?$basic_string@DU?$char_traits@D@std@@V?$allocator@D@2@@std@@QEAAX_K0@Z 0000000180032180     serialport.obj
 0004:0000018c       $pdata$?Error@Nan@@YA?AV?$Local@VValue@v8@@@v8@@PEBD@Z 000000018003218c     serialport_win.obj
 0004:00000198       $pdata$?ErrorCodeToString@@YAXPEBDHPEAD@Z 0000000180032198     serialport_win.obj
 0004:000001a4       $pdata$?EIO_Open@@YAXPEAUuv_work_s@@@Z 00000001800321a4     serialport_win.obj
 0004:000001b0       $pdata$0$?EIO_Open@@YAXPEAUuv_work_s@@@Z 00000001800321b0     serialport_win.obj
 0004:000001bc       $pdata$1$?EIO_Open@@YAXPEAUuv_work_s@@@Z 00000001800321bc     serialport_win.obj
 0004:000001c8       $pdata$?EIO_Set@@YAXPEAUuv_work_s@@@Z 00000001800321c8     serialport_win.obj
 0004:000001d4       $pdata$?EIO_WatchPort@@YAXPEAUuv_work_s@@@Z 00000001800321d4     serialport_win.obj
 0004:000001e0       $pdata$?IsClosingHandle@@YA_NH@Z 00000001800321e0     serialport_win.obj
 0004:000001ec       $pdata$0$?IsClosingHandle@@YA_NH@Z 00000001800321ec     serialport_win.obj
 0004:000001f8       $pdata$1$?IsClosingHandle@@YA_NH@Z 00000001800321f8     serialport_win.obj
 0004:00000204       $pdata$2$?IsClosingHandle@@YA_NH@Z 0000000180032204     serialport_win.obj
 0004:00000210       $pdata$4$?IsClosingHandle@@YA_NH@Z 0000000180032210     serialport_win.obj
 0004:0000021c       $pdata$?DisposeWatchPortCallbacks@@YAXPEAUWatchPortBaton@@@Z 000000018003221c     serialport_win.obj
 0004:00000228       $pdata$?FinalizerCallback@@YAXPEADPEAX@Z 0000000180032228     serialport_win.obj
 0004:00000234       $pdata$?EIO_AfterWatchPort@@YAXPEAUuv_work_s@@@Z 0000000180032234     serialport_win.obj
 0004:00000240       $pdata$?AfterOpenSuccess@@YAXHPEAVCallback@Nan@@00@Z 0000000180032240     serialport_win.obj
 0004:0000024c       $pdata$?EIO_Write@@YAXPEAUuv_work_s@@@Z 000000018003224c     serialport_win.obj
 0004:00000258       $pdata$?EIO_Close@@YAXPEAUuv_work_s@@@Z 0000000180032258     serialport_win.obj
 0004:00000264       $pdata$?EIO_List@@YAXPEAUuv_work_s@@@Z 0000000180032264     serialport_win.obj
 0004:00000270       $pdata$?EIO_Flush@@YAXPEAUuv_work_s@@@Z 0000000180032270     serialport_win.obj
 0004:0000027c       $pdata$?EIO_Drain@@YAXPEAUuv_work_s@@@Z 000000018003227c     serialport_win.obj
 0004:00000288       $pdata$??1?$CDhComPtr@UIEnumVARIANT@@@@QEAA@XZ 0000000180032288     serialport_win.obj
 0004:00000288       $pdata$??1?$CDhComPtr@UIDispatch@@@@QEAA@XZ 0000000180032288     serialport_win.obj
 0004:00000294       $pdata$??1?$vector@IV?$allocator@I@std@@@std@@QEAA@XZ 0000000180032294     serialport_win.obj
 0004:000002a0       $pdata$??1?$_List_buy@HV?$allocator@H@std@@@std@@QEAA@XZ 00000001800322a0     serialport_win.obj
 0004:000002ac       $pdata$??$_Buynode@AEBH@?$_List_buy@HV?$allocator@H@std@@@std@@QEAAPEAU?$_List_node@HPEAX@1@PEAU21@0AEBH@Z 00000001800322ac     serialport_win.obj
 0004:000002b8       $pdata$dhGetObjectEx       00000001800322b8     disphelper.obj
 0004:000002c4       $pdata$dhGetObject         00000001800322c4     disphelper.obj
 0004:000002d0       $pdata$dhGetValue          00000001800322d0     disphelper.obj
 0004:000002dc       $pdata$dhInvokeArray       00000001800322dc     disphelper.obj
 0004:000002e8       $pdata$dhGetValueV         00000001800322e8     disphelper.obj
 0004:000002f4       $pdata$0$dhGetValueV       00000001800322f4     disphelper.obj
 0004:00000300       $pdata$1$dhGetValueV       0000000180032300     disphelper.obj
 0004:0000030c       $pdata$2$dhGetValueV       000000018003230c     disphelper.obj
 0004:00000318       $pdata$3$dhGetValueV       0000000180032318     disphelper.obj
 0004:00000324       $pdata$4$dhGetValueV       0000000180032324     disphelper.obj
 0004:00000330       $pdata$dhInvokeV           0000000180032330     disphelper.obj
 0004:0000033c       $pdata$0$dhInvokeV         000000018003233c     disphelper.obj
 0004:00000348       $pdata$1$dhInvokeV         0000000180032348     disphelper.obj
 0004:00000354       $pdata$TraverseSubObjects  0000000180032354     disphelper.obj
 0004:00000360       $pdata$InternalInvokeV     0000000180032360     disphelper.obj
 0004:0000036c       $pdata$CreateArgumentArray 000000018003236c     disphelper.obj
 0004:00000378       $pdata$ExtractArgument     0000000180032378     disphelper.obj
 0004:00000384       $pdata$0$ExtractArgument   0000000180032384     disphelper.obj
 0004:00000390       $pdata$1$ExtractArgument   0000000180032390     disphelper.obj
 0004:0000039c       $pdata$dhEnumBeginV        000000018003239c     disphelper.obj
 0004:000003a8       $pdata$dhEnumNextObject    00000001800323a8     disphelper.obj
 0004:000003b4       $pdata$dhEnumBegin         00000001800323b4     disphelper.obj
 0004:000003c0       $pdata$ConvertFileTimeToVariantTime 00000001800323c0     disphelper.obj
 0004:000003cc       $pdata$ConvertVariantTimeToFileTime 00000001800323cc     disphelper.obj
 0004:000003d8       $pdata$ConvertVariantTimeToSystemTime 00000001800323d8     disphelper.obj
 0004:000003e4       $pdata$ConvertVariantTimeToTimeT 00000001800323e4     disphelper.obj
 0004:000003f0       $pdata$ConvertTimeTToVariantTime 00000001800323f0     disphelper.obj
 0004:000003fc       $pdata$0$ConvertTimeTToVariantTime 00000001800323fc     disphelper.obj
 0004:00000408       $pdata$1$ConvertTimeTToVariantTime 0000000180032408     disphelper.obj
 0004:00000414       $pdata$ConvertAnsiStrToBStr 0000000180032414     disphelper.obj
 0004:00000420       $pdata$0$ConvertAnsiStrToBStr 0000000180032420     disphelper.obj
 0004:0000042c       $pdata$2$ConvertAnsiStrToBStr 000000018003242c     disphelper.obj
 0004:00000438       $pdata$4$ConvertAnsiStrToBStr 0000000180032438     disphelper.obj
 0004:00000444       $pdata$ConvertBStrToAnsiStr 0000000180032444     disphelper.obj
 0004:00000450       $pdata$0$ConvertBStrToAnsiStr 0000000180032450     disphelper.obj
 0004:0000045c       $pdata$3$ConvertBStrToAnsiStr 000000018003245c     disphelper.obj
 0004:00000468       $pdata$dhExitEx            0000000180032468     disphelper.obj
 0004:00000474       $pdata$dhFormatExceptionW  0000000180032474     disphelper.obj
 0004:00000480       $pdata$1$dhFormatExceptionW 0000000180032480     disphelper.obj
 0004:0000048c       $pdata$2$dhFormatExceptionW 000000018003248c     disphelper.obj
 0004:00000498       $pdata$dhCleanupThreadException 0000000180032498     disphelper.obj
 0004:000004a4       $pdata$??1CAutoHeapAlloc@@QEAA@XZ 00000001800324a4     enumser.obj
 0004:000004b0       $pdata$?UsingQueryDosDevice@CEnumerateSerial@@SAHAEAV?$vector@IV?$allocator@I@std@@@std@@@Z 00000001800324b0     enumser.obj
 0004:000004bc       $pdata$?_Reserve@?$vector@IV?$allocator@I@std@@@std@@IEAAX_K@Z 00000001800324bc     enumser.obj
 0004:000004c8       $pdata$?_Reallocate@?$vector@IV?$allocator@I@std@@@std@@IEAAX_K@Z 00000001800324c8     enumser.obj
 0004:000004d4       $pdata$0$?_Reallocate@?$vector@IV?$allocator@I@std@@@std@@IEAAX_K@Z 00000001800324d4     enumser.obj
 0004:000004e0       $pdata$1$?_Reallocate@?$vector@IV?$allocator@I@std@@@std@@IEAAX_K@Z 00000001800324e0     enumser.obj
 0004:000004ec       $pdata$??0bad_alloc@std@@QEAA@AEBV01@@Z 00000001800324ec     libcpmt:xthrow.obj
 0004:000004f8       $pdata$??0length_error@std@@QEAA@AEBV01@@Z 00000001800324f8     libcpmt:xthrow.obj
 0004:00000504       $pdata$??0logic_error@std@@QEAA@AEBV01@@Z 0000000180032504     libcpmt:xthrow.obj
 0004:00000510       $pdata$??0out_of_range@std@@QEAA@AEBV01@@Z 0000000180032510     libcpmt:xthrow.obj
 0004:0000051c       $pdata$??_Gbad_alloc@std@@UEAAPEAXI@Z 000000018003251c     libcpmt:xthrow.obj
 0004:00000528       $pdata$??_Glogic_error@std@@UEAAPEAXI@Z 0000000180032528     libcpmt:xthrow.obj
 0004:00000528       $pdata$??_Gout_of_range@std@@UEAAPEAXI@Z 0000000180032528     libcpmt:xthrow.obj
 0004:00000528       $pdata$??_Glength_error@std@@UEAAPEAXI@Z 0000000180032528     libcpmt:xthrow.obj
 0004:00000534       $pdata$?_Xbad_alloc@std@@YAXXZ 0000000180032534     libcpmt:xthrow.obj
 0004:00000540       $pdata$?_Xlength_error@std@@YAXPEBD@Z 0000000180032540     libcpmt:xthrow.obj
 0004:0000054c       $pdata$?_Xout_of_range@std@@YAXPEBD@Z 000000018003254c     libcpmt:xthrow.obj
 0004:00000570       $pdata$malloc              0000000180032570     LIBCMT:malloc.obj
 0004:0000057c       $pdata$_wassert            000000018003257c     LIBCMT:wassert.obj
 0004:00000588       $pdata$swprintf            0000000180032588     LIBCMT:wassert.obj
 0004:00000594       $pdata$__onexitinit        0000000180032594     LIBCMT:onexit.obj
 0004:000005a0       $pdata$_onexit             00000001800325a0     LIBCMT:onexit.obj
 0004:000005ac       $pdata$atexit              00000001800325ac     LIBCMT:onexit.obj
 0004:000005b8       $pdata$??2@YAPEAX_K@Z      00000001800325b8     LIBCMT:new.obj
 0004:000005c4       $pdata$strstr              00000001800325c4     LIBCMT:strstr.obj
 0004:000005d0       $pdata$_snprintf           00000001800325d0     LIBCMT:snprintf.obj
 0004:000005e8       $pdata$strtok              00000001800325e8     LIBCMT:strtok.obj
 0004:000005f4       $pdata$wcschr              00000001800325f4     LIBCMT:wcschr.obj
 0004:00000600       $pdata$_make__time64_t     0000000180032600     LIBCMT:mktime64.obj
 0004:0000060c       $pdata$_gmtime64           000000018003260c     LIBCMT:gmtime64.obj
 0004:00000618       $pdata$_gmtime64_s         0000000180032618     LIBCMT:gmtime64.obj
 0004:00000624       $pdata$_snwprintf          0000000180032624     LIBCMT:snwprint.obj
 0004:00000630       $pdata$_localtime64        0000000180032630     LIBCMT:loctim64.obj
 0004:0000063c       $pdata$_localtime64_s      000000018003263c     LIBCMT:loctim64.obj
 0004:00000648       $pdata$??0_LocaleUpdate@@QEAA@PEAUlocaleinfo_struct@@@Z 0000000180032648     LIBCMT:strnicmp.obj
 0004:00000654       $pdata$_strnicmp           0000000180032654     LIBCMT:strnicmp.obj
 0004:00000660       $pdata$_strnicmp_l         0000000180032660     LIBCMT:strnicmp.obj
 0004:0000066c       $pdata$isdigit             000000018003266c     LIBCMT:_ctype.obj
 0004:00000678       $pdata$_isleadbyte_l       0000000180032678     LIBCMT:_wctype.obj
 0004:00000684       $pdata$isleadbyte          0000000180032684     LIBCMT:_wctype.obj
 0004:00000690       $pdata$_stricmp            0000000180032690     LIBCMT:stricmp.obj
 0004:0000069c       $pdata$_stricmp_l          000000018003269c     LIBCMT:stricmp.obj
 0004:000006a8       $pdata$_CRT_INIT           00000001800326a8     LIBCMT:dllcrt0.obj
 0004:000006b4       $pdata$_DllMainCRTStartup  00000001800326b4     LIBCMT:dllcrt0.obj
 0004:000006c0       $pdata$__DllMainCRTStartup 00000001800326c0     LIBCMT:dllcrt0.obj
 0004:000006d8       $pdata$_CxxThrowException  00000001800326d8     LIBCMT:throw.obj
 0004:000006e4       $pdata$?_GetEstablisherFrame@@YAPEA_KPEA_KPEAU_xDISPATCHER_CONTEXT@@PEBU_s_FuncInfo@@0@Z 00000001800326e4     LIBCMT:trnsctrl.obj
 0004:000006f0       $pdata$?_GetRangeOfTrysToCheck@@YAPEBU_s_TryBlockMapEntry@@PEA_KPEBU_s_FuncInfo@@HHPEAI2PEAU_xDISPATCHER_CONTEXT@@@Z 00000001800326f0     LIBCMT:trnsctrl.obj
 0004:000006fc       $pdata$?__FrameUnwindToEmptyState@@YAXPEA_KPEAU_xDISPATCHER_CONTEXT@@PEBU_s_FuncInfo@@@Z 00000001800326fc     LIBCMT:trnsctrl.obj
 0004:00000708       $pdata$?__SehTransFilter@@YAHPEAU_EXCEPTION_POINTERS@@PEAUEHExceptionRecord@@PEA_KPEAU_CONTEXT@@PEAU_xDISPATCHER_CONTEXT@@PEBU_s_FuncInfo@@PEAH@Z 0000000180032708     LIBCMT:trnsctrl.obj
 0004:00000714       $pdata$_CallSETranslator   0000000180032714     LIBCMT:trnsctrl.obj
 0004:00000720       $pdata$_CreateFrameInfo    0000000180032720     LIBCMT:trnsctrl.obj
 0004:0000072c       $pdata$_FindAndUnlinkFrame 000000018003272c     LIBCMT:trnsctrl.obj
 0004:00000738       $pdata$_GetImageBase       0000000180032738     LIBCMT:trnsctrl.obj
 0004:00000744       $pdata$_GetThrowImageBase  0000000180032744     LIBCMT:trnsctrl.obj
 0004:00000750       $pdata$_IsExceptionObjectToBeDestroyed 0000000180032750     LIBCMT:trnsctrl.obj
 0004:0000075c       $pdata$_SetImageBase       000000018003275c     LIBCMT:trnsctrl.obj
 0004:00000768       $pdata$_SetThrowImageBase  0000000180032768     LIBCMT:trnsctrl.obj
 0004:00000774       $pdata$_UnwindNestedFrames 0000000180032774     LIBCMT:trnsctrl.obj
 0004:00000780       $pdata$__CxxFrameHandler3  0000000180032780     LIBCMT:trnsctrl.obj
 0004:0000078c       $pdata$??8type_info@@QEBA_NAEBV0@@Z 000000018003278c     LIBCMT:typinfo.obj
 0004:00000798       $pdata$??_Gtype_info@@UEAAPEAXI@Z 0000000180032798     LIBCMT:typinfo.obj
 0004:000007a4       $pdata$??0exception@std@@QEAA@AEBQEBD@Z 00000001800327a4     LIBCMT:stdexcpt.obj
 0004:000007b0       $pdata$??0exception@std@@QEAA@AEBV01@@Z 00000001800327b0     LIBCMT:stdexcpt.obj
 0004:000007bc       $pdata$??4exception@std@@QEAAAEAV01@AEBV01@@Z 00000001800327bc     LIBCMT:stdexcpt.obj
 0004:000007c8       $pdata$??_Gexception@std@@UEAAPEAXI@Z 00000001800327c8     LIBCMT:stdexcpt.obj
 0004:000007d4       $pdata$?_Copy_str@exception@std@@AEAAXPEBD@Z 00000001800327d4     LIBCMT:stdexcpt.obj
 0004:000007e0       $pdata$?_Tidy@exception@std@@AEAAXXZ 00000001800327e0     LIBCMT:stdexcpt.obj
 0004:000007ec       $pdata$__raise_securityfailure 00000001800327ec     LIBCMT:gs_report.obj
 0004:000007f8       $pdata$__report_gsfailure  00000001800327f8     LIBCMT:gs_report.obj
 0004:00000804       $pdata$__report_rangecheckfailure 0000000180032804     LIBCMT:gs_report.obj
 0004:00000810       $pdata$__report_securityfailure 0000000180032810     LIBCMT:gs_report.obj
 0004:0000081c       $pdata$__isa_available_init 000000018003281c     LIBCMT:cpu_disp.obj
 0004:00000828       $pdata$_callnewh           0000000180032828     LIBCMT:handler.obj
 0004:00000834       $pdata$__crtCorExitProcess 0000000180032834     LIBCMT:crt0dat.obj
 0004:00000840       $pdata$__crtExitProcess    0000000180032840     LIBCMT:crt0dat.obj
 0004:0000084c       $pdata$__freeCrtMemory     000000018003284c     LIBCMT:crt0dat.obj
 0004:00000858       $pdata$_amsg_exit          0000000180032858     LIBCMT:crt0dat.obj
 0004:00000864       $pdata$_cinit              0000000180032864     LIBCMT:crt0dat.obj
 0004:00000870       $pdata$_init_pointers      0000000180032870     LIBCMT:crt0dat.obj
 0004:0000087c       $pdata$_initterm           000000018003287c     LIBCMT:crt0dat.obj
 0004:00000888       $pdata$_initterm_e         0000000180032888     LIBCMT:crt0dat.obj
 0004:00000894       $pdata$doexit              0000000180032894     LIBCMT:crt0dat.obj
 0004:000008a0       $pdata$_FF_MSGBANNER       00000001800328a0     LIBCMT:crt0msg.obj
 0004:000008ac       $pdata$_NMSG_WRITE         00000001800328ac     LIBCMT:crt0msg.obj
 0004:000008b8       $pdata$__doserrno          00000001800328b8     LIBCMT:dosmap.obj
 0004:000008c4       $pdata$_dosmaperr          00000001800328c4     LIBCMT:dosmap.obj
 0004:000008d0       $pdata$_errno              00000001800328d0     LIBCMT:dosmap.obj
 0004:000008dc       $pdata$_heap_init          00000001800328dc     LIBCMT:heapinit.obj
 0004:000008e8       $pdata$_call_reportfault   00000001800328e8     LIBCMT:invarg.obj
 0004:000008f4       $pdata$_invalid_parameter  00000001800328f4     LIBCMT:invarg.obj
 0004:00000900       $pdata$_invalid_parameter_noinfo 0000000180032900     LIBCMT:invarg.obj
 0004:0000090c       $pdata$_invoke_watson      000000018003290c     LIBCMT:invarg.obj
 0004:00000918       $pdata$memcpy_s            0000000180032918     LIBCMT:memcpy_s.obj
 0004:00000924       $pdata$wcscat_s            0000000180032924     LIBCMT:wcscat_s.obj
 0004:00000930       $pdata$wcscpy_s            0000000180032930     LIBCMT:wcscpy_s.obj
 0004:0000093c       $pdata$wcsncat_s           000000018003293c     LIBCMT:wcsncat_s.obj
 0004:00000948       $pdata$abort               0000000180032948     LIBCMT:abort.obj
 0004:00000954       $pdata$_set_error_mode     0000000180032954     LIBCMT:errmode.obj
 0004:00000960       $pdata$_itow_s             0000000180032960     LIBCMT:xtows.obj
 0004:0000096c       $pdata$xtow_s              000000018003296c     LIBCMT:xtows.obj
 0004:00000978       $pdata$__initstdio         0000000180032978     LIBCMT:_file.obj
 0004:00000984       $pdata$__endstdio          0000000180032984     LIBCMT:_file.obj
 0004:00000990       $pdata$_lock_file          0000000180032990     LIBCMT:_file.obj
 0004:0000099c       $pdata$_lock_file2         000000018003299c     LIBCMT:_file.obj
 0004:000009a8       $pdata$_fflush_nolock      00000001800329a8     LIBCMT:fflush.obj
 0004:000009b4       $pdata$_flush              00000001800329b4     LIBCMT:fflush.obj
 0004:000009c0       $pdata$fflush              00000001800329c0     LIBCMT:fflush.obj
 0004:000009cc       $pdata$flsall              00000001800329cc     LIBCMT:fflush.obj
 0004:000009d8       $pdata$setvbuf             00000001800329d8     LIBCMT:setvbuf.obj
 0004:000009e4       $pdata$fwprintf            00000001800329e4     LIBCMT:fwprintf.obj
 0004:000009f0       $pdata$_vswprintf_c_l      00000001800329f0     LIBCMT:vswprnc.obj
 0004:000009fc       $pdata$_vswprintf_helper   00000001800329fc     LIBCMT:vswprnc.obj
 0004:00000a08       $pdata$raise               0000000180032a08     LIBCMT:winsig.obj
 0004:00000a14       $pdata$__crtMessageBoxW    0000000180032a14     LIBCMT:crtmboxw.obj
 0004:00000a20       $pdata$__GSHandlerCheck    0000000180032a20     LIBCMT:gshandler.obj
 0004:00000a2c       $pdata$__GSHandlerCheckCommon 0000000180032a2c     LIBCMT:gshandler.obj
 0004:00000a38       $pdata$_msize              0000000180032a38     LIBCMT:msize.obj
 0004:00000a44       $pdata$_calloc_crt         0000000180032a44     LIBCMT:crtheap.obj
 0004:00000a50       $pdata$_malloc_crt         0000000180032a50     LIBCMT:crtheap.obj
 0004:00000a5c       $pdata$_realloc_crt        0000000180032a5c     LIBCMT:crtheap.obj
 0004:00000a68       $pdata$_recalloc_crt       0000000180032a68     LIBCMT:crtheap.obj
 0004:00000a74       $pdata$__C_specific_handler 0000000180032a74     LIBCMT:chandler.obj
 0004:00000a80       $pdata$free                0000000180032a80     LIBCMT:free.obj
 0004:00000a8c       $pdata$_clrfp              0000000180032a8c     LIBCMT:fpctrl.obj
 0004:00000a98       $pdata$_ctrlfp             0000000180032a98     LIBCMT:fpctrl.obj
 0004:00000aa4       $pdata$_set_statfp         0000000180032aa4     LIBCMT:fpctrl.obj
 0004:00000ab0       $pdata$_statfp             0000000180032ab0     LIBCMT:fpctrl.obj
 0004:00000abc       $pdata$_call_matherr       0000000180032abc     LIBCMT:libm_error.obj
 0004:00000ac8       $pdata$_exception_enabled  0000000180032ac8     LIBCMT:libm_error.obj
 0004:00000ad4       $pdata$_handle_error       0000000180032ad4     LIBCMT:libm_error.obj
 0004:00000ae0       $pdata$_flsbuf             0000000180032ae0     LIBCMT:_flsbuf.obj
 0004:00000aec       $pdata$_output_l           0000000180032aec     LIBCMT:output.obj
 0004:00000af8       $pdata$write_char          0000000180032af8     LIBCMT:output.obj
 0004:00000b04       $pdata$write_multi_char    0000000180032b04     LIBCMT:output.obj
 0004:00000b10       $pdata$write_string        0000000180032b10     LIBCMT:output.obj
 0004:00000b28       $pdata$_freefls            0000000180032b28     LIBCMT:tidtable.obj
 0004:00000b34       $pdata$_freeptd            0000000180032b34     LIBCMT:tidtable.obj
 0004:00000b40       $pdata$_getptd             0000000180032b40     LIBCMT:tidtable.obj
 0004:00000b4c       $pdata$_getptd_noexit      0000000180032b4c     LIBCMT:tidtable.obj
 0004:00000b58       $pdata$_initptd            0000000180032b58     LIBCMT:tidtable.obj
 0004:00000b64       $pdata$_mtinit             0000000180032b64     LIBCMT:tidtable.obj
 0004:00000b70       $pdata$_mtterm             0000000180032b70     LIBCMT:tidtable.obj
 0004:00000b7c       $pdata$_get_daylight       0000000180032b7c     LIBCMT:timeset.obj
 0004:00000b88       $pdata$_get_dstbias        0000000180032b88     LIBCMT:timeset.obj
 0004:00000b94       $pdata$_get_timezone       0000000180032b94     LIBCMT:timeset.obj
 0004:00000ba0       $pdata$__tzset             0000000180032ba0     LIBCMT:tzset.obj
 0004:00000bac       $pdata$_isindst            0000000180032bac     LIBCMT:tzset.obj
 0004:00000bb8       $pdata$_isindst_nolock     0000000180032bb8     LIBCMT:tzset.obj
 0004:00000bc4       $pdata$_tzset_nolock       0000000180032bc4     LIBCMT:tzset.obj
 0004:00000bd0       $pdata$cvtdate             0000000180032bd0     LIBCMT:tzset.obj
 0004:00000bdc       $pdata$__getgmtimebuf      0000000180032bdc     LIBCMT:gmtime.obj
 0004:00000be8       $pdata$_woutput_l          0000000180032be8     LIBCMT:woutput.obj
 0004:00000bf4       $pdata$write_char          0000000180032bf4     LIBCMT:woutput.obj
 0004:00000c00       $pdata$write_multi_char    0000000180032c00     LIBCMT:woutput.obj
 0004:00000c0c       $pdata$write_string        0000000180032c0c     LIBCMT:woutput.obj
 0004:00000c18       $pdata$__freetlocinfo      0000000180032c18     LIBCMT:localref.obj
 0004:00000c24       $pdata$__updatetlocinfo    0000000180032c24     LIBCMT:localref.obj
 0004:00000c30       $pdata$_updatetlocinfoEx_nolock 0000000180032c30     LIBCMT:localref.obj
 0004:00000c3c       $pdata$__initmbctable      0000000180032c3c     LIBCMT:mbctype.obj
 0004:00000c48       $pdata$?getSystemCP@@YAHH@Z 0000000180032c48     LIBCMT:mbctype.obj
 0004:00000c54       $pdata$?setSBCS@@YAXPEAUthreadmbcinfostruct@@@Z 0000000180032c54     LIBCMT:mbctype.obj
 0004:00000c60       $pdata$?setSBUpLow@@YAXPEAUthreadmbcinfostruct@@@Z 0000000180032c60     LIBCMT:mbctype.obj
 0004:00000c6c       $pdata$__updatetmbcinfo    0000000180032c6c     LIBCMT:mbctype.obj
 0004:00000c78       $pdata$_setmbcp            0000000180032c78     LIBCMT:mbctype.obj
 0004:00000c84       $pdata$_setmbcp_nolock     0000000180032c84     LIBCMT:mbctype.obj
 0004:00000c90       $pdata$_tolower_l          0000000180032c90     LIBCMT:tolower.obj
 0004:00000c9c       $pdata$_locterm            0000000180032c9c     LIBCMT:wsetloca.obj
 0004:00000ca8       $pdata$?strtoxl@@YAKPEAUlocaleinfo_struct@@PEBDPEAPEBDHH@Z 0000000180032ca8     LIBCMT:strtol.obj
 0004:00000cb4       $pdata$strtol              0000000180032cb4     LIBCMT:strtol.obj
 0004:00000cc0       $pdata$_isctype_l          0000000180032cc0     LIBCMT:isctype.obj
 0004:00000ccc       $pdata$_XcptFilter         0000000180032ccc     LIBCMT:winxfltr.obj
 0004:00000cd8       $pdata$_ioinit             0000000180032cd8     LIBCMT:ioinit.obj
 0004:00000ce4       $pdata$_ioterm             0000000180032ce4     LIBCMT:ioinit.obj
 0004:00000cf0       $pdata$_setargv            0000000180032cf0     LIBCMT:stdargv.obj
 0004:00000cfc       $pdata$parse_cmdline       0000000180032cfc     LIBCMT:stdargv.obj
 0004:00000d08       $pdata$_setenvp            0000000180032d08     LIBCMT:stdenvp.obj
 0004:00000d14       $pdata$__security_init_cookie 0000000180032d14     LIBCMT:gs_support.obj
 0004:00000d20       $pdata$__crtGetEnvironmentStringsA 0000000180032d20     LIBCMT:a_env.obj
 0004:00000d2c       $pdata$__crtCaptureCurrentContext 0000000180032d2c     LIBCMT:winapisupp.obj
 0004:00000d38       $pdata$__crtCapturePreviousContext 0000000180032d38     LIBCMT:winapisupp.obj
 0004:00000d44       $pdata$__crtInitializeCriticalSectionEx 0000000180032d44     LIBCMT:winapisupp.obj
 0004:00000d50       $pdata$__crtIsPackagedApp  0000000180032d50     LIBCMT:winapisupp.obj
 0004:00000d5c       $pdata$__crtLoadWinApiPointers 0000000180032d5c     LIBCMT:winapisupp.obj
 0004:00000d68       $pdata$__crtTerminateProcess 0000000180032d68     LIBCMT:winapisupp.obj
 0004:00000d74       $pdata$__crtUnhandledException 0000000180032d74     LIBCMT:winapisupp.obj
 0004:00000d80       $pdata$_RTC_Initialize     0000000180032d80     LIBCMT:initsect.obj
 0004:00000d8c       $pdata$_RTC_Terminate      0000000180032d8c     LIBCMT:initsect.obj
 0004:00000d98       $pdata$__DestructExceptionObject 0000000180032d98     LIBCMT:frame.obj
 0004:00000da4       $pdata$??0bad_exception@std@@QEAA@AEBV01@@Z 0000000180032da4     LIBCMT:frame.obj
 0004:00000db0       $pdata$??_Gbad_exception@std@@UEAAPEAXI@Z 0000000180032db0     LIBCMT:frame.obj
 0004:00000dbc       $pdata$?CatchIt@@YAXPEAUEHExceptionRecord@@PEA_KPEAU_CONTEXT@@PEAU_xDISPATCHER_CONTEXT@@PEBU_s_FuncInfo@@PEBU_s_HandlerType@@PEBU_s_CatchableType@@PEBU_s_TryBlockMapEntry@@H1EE@Z 0000000180032dbc     LIBCMT:frame.obj
 0004:00000dc8       $pdata$?FindHandler@@YAXPEAUEHExceptionRecord@@PEA_KPEAU_CONTEXT@@PEAU_xDISPATCHER_CONTEXT@@PEBU_s_FuncInfo@@EH1@Z 0000000180032dc8     LIBCMT:frame.obj
 0004:00000dd4       $pdata$?FindHandlerForForeignException@@YAXPEAUEHExceptionRecord@@PEA_KPEAU_CONTEXT@@PEAU_xDISPATCHER_CONTEXT@@PEBU_s_FuncInfo@@HH1@Z 0000000180032dd4     LIBCMT:frame.obj
 0004:00000de0       $pdata$?IsInExceptionSpec@@YAEPEAUEHExceptionRecord@@PEBU_s_ESTypeList@@@Z 0000000180032de0     LIBCMT:frame.obj
 0004:00000dec       $pdata$__BuildCatchObject  0000000180032dec     LIBCMT:frame.obj
 0004:00000df8       $pdata$__BuildCatchObjectHelper 0000000180032df8     LIBCMT:frame.obj
 0004:00000e04       $pdata$__CxxCallCatchBlock 0000000180032e04     LIBCMT:frame.obj
 0004:00000e10       $pdata$__FrameUnwindFilter 0000000180032e10     LIBCMT:frame.obj
 0004:00000e1c       $pdata$__FrameUnwindToState 0000000180032e1c     LIBCMT:frame.obj
 0004:00000e28       $pdata$__InternalCxxFrameHandler 0000000180032e28     LIBCMT:frame.obj
 0004:00000e34       $pdata$__TypeMatch         0000000180032e34     LIBCMT:frame.obj
 0004:00000e40       $pdata$?__GetCurrentState@@YAHPEA_KPEAU_xDISPATCHER_CONTEXT@@PEBU_s_FuncInfo@@@Z 0000000180032e40     LIBCMT:ehstate.obj
 0004:00000e4c       $pdata$?__GetUnwindTryBlock@@YAHPEA_KPEAU_xDISPATCHER_CONTEXT@@PEBU_s_FuncInfo@@@Z 0000000180032e4c     LIBCMT:ehstate.obj
 0004:00000e58       $pdata$?__SetUnwindTryBlock@@YAXPEA_KPEAU_xDISPATCHER_CONTEXT@@PEBU_s_FuncInfo@@H@Z 0000000180032e58     LIBCMT:ehstate.obj
 0004:00000e64       $pdata$?__StateFromIp@@YAHPEBU_s_FuncInfo@@PEAU_xDISPATCHER_CONTEXT@@_J@Z 0000000180032e64     LIBCMT:ehstate.obj
 0004:00000e70       $pdata$?_inconsistency@@YAXXZ 0000000180032e70     LIBCMT:hooks.obj
 0004:00000e7c       $pdata$?terminate@@YAXXZ   0000000180032e7c     LIBCMT:hooks.obj
 0004:00000e88       $pdata$_initp_eh_hooks     0000000180032e88     LIBCMT:hooks.obj
 0004:00000ea0       $pdata$?_Type_info_dtor@type_info@@CAXPEAV1@@Z 0000000180032ea0     LIBCMT:typname.obj
 0004:00000eac       $pdata$_cfltcvt            0000000180032eac     LIBCMT:cvt.obj
 0004:00000eb8       $pdata$_cfltcvt_l          0000000180032eb8     LIBCMT:cvt.obj
 0004:00000ec4       $pdata$_cftoa_l            0000000180032ec4     LIBCMT:cvt.obj
 0004:00000ed0       $pdata$_cftoe2_l           0000000180032ed0     LIBCMT:cvt.obj
 0004:00000edc       $pdata$_cftoe_l            0000000180032edc     LIBCMT:cvt.obj
 0004:00000ee8       $pdata$_cftof2_l           0000000180032ee8     LIBCMT:cvt.obj
 0004:00000ef4       $pdata$_cftof_l            0000000180032ef4     LIBCMT:cvt.obj
 0004:00000f00       $pdata$_cftog_l            0000000180032f00     LIBCMT:cvt.obj
 0004:00000f0c       $pdata$_cropzeros_l        0000000180032f0c     LIBCMT:cvt.obj
 0004:00000f18       $pdata$_fassign_l          0000000180032f18     LIBCMT:cvt.obj
 0004:00000f24       $pdata$_forcdecpt_l        0000000180032f24     LIBCMT:cvt.obj
 0004:00000f30       $pdata$_initp_misc_cfltcvt_tab 0000000180032f30     LIBCMT:cmiscdat.obj
 0004:00000f3c       $pdata$strcpy_s            0000000180032f3c     LIBCMT:strcpy_s.obj
 0004:00000f48       $pdata$_lock               0000000180032f48     LIBCMT:mlock.obj
 0004:00000f54       $pdata$_mtdeletelocks      0000000180032f54     LIBCMT:mlock.obj
 0004:00000f60       $pdata$_mtinitlocknum      0000000180032f60     LIBCMT:mlock.obj
 0004:00000f6c       $pdata$_mtinitlocks        0000000180032f6c     LIBCMT:mlock.obj
 0004:00000f78       $pdata$_IsNonwritableInCurrentImage 0000000180032f78     LIBCMT:pesect.obj
 0004:00000f84       $pdata$_ftbuf              0000000180032f84     LIBCMT:_sftbuf.obj
 0004:00000f90       $pdata$_stbuf              0000000180032f90     LIBCMT:_sftbuf.obj
 0004:00000f9c       $pdata$wcsncpy_s           0000000180032f9c     LIBCMT:wcsncpy_s.obj
 0004:00000fa8       $pdata$_fcloseall          0000000180032fa8     LIBCMT:closeall.obj
 0004:00000fb4       $pdata$_fileno             0000000180032fb4     LIBCMT:fileno.obj
 0004:00000fc0       $pdata$_commit             0000000180032fc0     LIBCMT:commit.obj
 0004:00000fcc       $pdata$_write              0000000180032fcc     LIBCMT:write.obj
 0004:00000fd8       $pdata$_write_nolock       0000000180032fd8     LIBCMT:write.obj
 0004:00000fe4       $pdata$_freebuf            0000000180032fe4     LIBCMT:_freebuf.obj
 0004:00000ff0       $pdata$realloc             0000000180032ff0     LIBCMT:realloc.obj
 0004:00000ffc       $pdata$_recalloc           0000000180032ffc     LIBCMT:recalloc.obj
 0004:00001008       $pdata$_calloc_impl        0000000180033008     LIBCMT:calloc_impl.obj
 0004:00001044       $pdata$strncpy_s           0000000180033044     LIBCMT:strncpy_s.obj
 0004:00001050       $pdata$GetTableIndexFromLocaleName 0000000180033050     LIBCMT:winapinls.obj
 0004:0000105c       $pdata$__crtCompareStringEx 000000018003305c     LIBCMT:winapinls.obj
 0004:00001068       $pdata$__crtDownlevelLocaleNameToLCID 0000000180033068     LIBCMT:winapinls.obj
 0004:00001074       $pdata$__crtLCMapStringEx  0000000180033074     LIBCMT:winapinls.obj
 0004:0000108c       $pdata$_raise_exc          000000018003308c     LIBCMT:fpexcept.obj
 0004:00001098       $pdata$_raise_exc_ex       0000000180033098     LIBCMT:fpexcept.obj
 0004:000010a4       $pdata$_set_errno_from_matherr 00000001800330a4     LIBCMT:fpexcept.obj
 0004:000010b0       $pdata$_isatty             00000001800330b0     LIBCMT:isatty.obj
 0004:000010bc       $pdata$_lseeki64           00000001800330bc     LIBCMT:lseeki64.obj
 0004:000010c8       $pdata$_lseeki64_nolock    00000001800330c8     LIBCMT:lseeki64.obj
 0004:000010d4       $pdata$_getbuf             00000001800330d4     LIBCMT:_getbuf.obj
 0004:000010e0       $pdata$_wctomb_s_l         00000001800330e0     LIBCMT:wctomb.obj
 0004:000010ec       $pdata$wctomb_s            00000001800330ec     LIBCMT:wctomb.obj
 0004:000010f8       $pdata$_getenv_helper_nolock 00000001800330f8     LIBCMT:getenv.obj
 0004:00001104       $pdata$___lc_codepage_func 0000000180033104     LIBCMT:initctyp.obj
 0004:00001110       $pdata$_fputwc_nolock      0000000180033110     LIBCMT:fputwc.obj
 0004:0000111c       $pdata$_mbtowc_l           000000018003311c     LIBCMT:mbtowc.obj
 0004:00001128       $pdata$__free_lconv_mon    0000000180033128     LIBCMT:initmon.obj
 0004:00001134       $pdata$__free_lconv_num    0000000180033134     LIBCMT:initnum.obj
 0004:00001140       $pdata$__free_lc_time      0000000180033140     LIBCMT:inittime.obj
 0004:0000114c       $pdata$?__crtLCMapStringA_stat@@YAHPEAUlocaleinfo_struct@@PEB_WKPEBDHPEADHHH@Z 000000018003314c     LIBCMT:a_map.obj
 0004:00001158       $pdata$__crtLCMapStringA   0000000180033158     LIBCMT:a_map.obj
 0004:00001164       $pdata$?__crtGetStringTypeA_stat@@YAHPEAUlocaleinfo_struct@@KPEBDHPEAGHH@Z 0000000180033164     LIBCMT:a_str.obj
 0004:00001170       $pdata$__crtGetStringTypeA 0000000180033170     LIBCMT:a_str.obj
 0004:00001188       $pdata$__crt_atoflt_l      0000000180033188     LIBCMT:atodbl.obj
 0004:00001194       $pdata$_atodbl_l           0000000180033194     LIBCMT:atodbl.obj
 0004:000011a0       $pdata$?x_ismbbtype_l@@YAHPEAUlocaleinfo_struct@@IHH@Z 00000001800331a0     LIBCMT:ismbbyte.obj
 0004:000011b8       $pdata$strrchr             00000001800331b8     LIBCMT:strrchr.obj
 0004:000011c4       $pdata$_fptostr            00000001800331c4     LIBCMT:_fptostr.obj
 0004:000011d0       $pdata$__dtold             00000001800331d0     LIBCMT:cfout.obj
 0004:000011dc       $pdata$_fltout2            00000001800331dc     LIBCMT:cfout.obj
 0004:000011e8       $pdata$_fclose_nolock      00000001800331e8     LIBCMT:fclose.obj
 0004:000011f4       $pdata$fclose              00000001800331f4     LIBCMT:fclose.obj
 0004:00001200       $pdata$__lock_fhandle      0000000180033200     LIBCMT:osfinfo.obj
 0004:0000120c       $pdata$_free_osfhnd        000000018003320c     LIBCMT:osfinfo.obj
 0004:00001218       $pdata$_get_osfhandle      0000000180033218     LIBCMT:osfinfo.obj
 0004:00001224       $pdata$_putwch_nolock      0000000180033224     LIBCMT:putwch.obj
 0004:0000123c       $pdata$__wtomb_environ     000000018003323c     LIBCMT:wtombenv.obj
 0004:00001248       $pdata$_mbsnbicoll_l       0000000180033248     LIBCMT:mbsnbico.obj
 0004:00001254       $pdata$_flswbuf            0000000180033254     LIBCMT:_flswbuf.obj
 0004:00001260       $pdata$_ld12tod            0000000180033260     LIBCMT:intrncvt.obj
 0004:0000126c       $pdata$_ld12tof            000000018003326c     LIBCMT:intrncvt.obj
 0004:00001278       $pdata$__strgtold12_l      0000000180033278     LIBCMT:strgtold.obj
 0004:00001284       $pdata$$I10_OUTPUT         0000000180033284     LIBCMT:x10fout.obj
 0004:00001290       $pdata$_close              0000000180033290     LIBCMT:close.obj
 0004:0000129c       $pdata$_close_nolock       000000018003329c     LIBCMT:close.obj
 0004:000012a8       $pdata$__termconout        00000001800332a8     LIBCMT:initcon.obj
 0004:000012b4       $pdata$__initconout        00000001800332b4     LIBCMT:initcon.obj
 0004:000012c0       $pdata$__crtsetenv         00000001800332c0     LIBCMT:setenv.obj
 0004:000012cc       $pdata$_strnicoll_l        00000001800332cc     LIBCMT:strnicol.obj
 0004:000012d8       $pdata$?__crtCompareStringA_stat@@YAHPEAUlocaleinfo_struct@@PEB_WKPEBDH2HH@Z 00000001800332d8     LIBCMT:a_cmp.obj
 0004:000012e4       $pdata$__crtCompareStringA 00000001800332e4     LIBCMT:a_cmp.obj
 0004:000012f0       $pdata$__mtold12           00000001800332f0     LIBCMT:mantold.obj
 0004:000012fc       $pdata$_strdup             00000001800332fc     LIBCMT:strdup.obj
 0004:00001308       $pdata$_mbschr_l           0000000180033308     LIBCMT:mbschr.obj
 0004:00001314       $pdata$strchr              0000000180033314     LIBCMT:strchr.obj
 0004:00001320       $pdata$__GSHandlerCheck_EH 0000000180033320     LIBCMT:gshandlereh.obj
 0004:0000132c       $pdata$ceil                000000018003332c     LIBCMT:ceil.obj
 0004:00001338       $pdata$floor               0000000180033338     LIBCMT:floor.obj
 0004:00001344       $pdata$?dtor$8@?0??List@@YAXAEBV?$FunctionCallbackInfo@VValue@v8@@@Nan@@@Z@4HA 0000000180033344     serialport.obj
 0004:00001350       $pdata$?dtor$9@?0??List@@YAXAEBV?$FunctionCallbackInfo@VValue@v8@@@Nan@@@Z@4HA 0000000180033350     serialport.obj
 0004:0000135c       $pdata$?dtor$0@?0??_Copy@?$basic_string@DU?$char_traits@D@std@@V?$allocator@D@2@@std@@QEAAX_K0@Z@4HA 000000018003335c     serialport.obj
 0004:00001368       $pdata$?dtor$2@?0???__Eg_closingHandles@@YAXXZ@4HA 0000000180033368     serialport_win.obj
 0004:00001374       $pdata$?dtor$3@?0???__Eg_closingHandles@@YAXXZ@4HA 0000000180033374     serialport_win.obj
 0004:00001380       $pdata$?dtor$12@?0??EIO_List@@YAXPEAUuv_work_s@@@Z@4HA 0000000180033380     serialport_win.obj
 0004:0000138c       $pdata$?dtor$13@?0??EIO_List@@YAXPEAUuv_work_s@@@Z@4HA 000000018003338c     serialport_win.obj
 0004:00001398       $pdata$?dtor$14@?0??EIO_List@@YAXPEAUuv_work_s@@@Z@4HA 0000000180033398     serialport_win.obj
 0004:000013a4       $pdata$?dtor$22@?0??EIO_List@@YAXPEAUuv_work_s@@@Z@4HA 00000001800333a4     serialport_win.obj
 0004:000013b0       $pdata$?dtor$23@?0??EIO_List@@YAXPEAUuv_work_s@@@Z@4HA 00000001800333b0     serialport_win.obj
 0004:000013bc       $pdata$?dtor$24@?0??EIO_List@@YAXPEAUuv_work_s@@@Z@4HA 00000001800333bc     serialport_win.obj
 0004:000013c8       $pdata$?dtor$0@?0???$_Buynode@AEBH@?$_List_buy@HV?$allocator@H@std@@@std@@QEAAPEAU?$_List_node@HPEAX@1@PEAU21@0AEBH@Z@4HA 00000001800333c8     serialport_win.obj
 0004:000013d4       $pdata$?dtor$1@?0???$_Buynode@AEBH@?$_List_buy@HV?$allocator@H@std@@@std@@QEAAPEAU?$_List_node@HPEAX@1@PEAU21@0AEBH@Z@4HA 00000001800333d4     serialport_win.obj
 0004:000013e0       $pdata$?dtor$2@?0???$_Buynode@AEBH@?$_List_buy@HV?$allocator@H@std@@@std@@QEAAPEAU?$_List_node@HPEAX@1@PEAU21@0AEBH@Z@4HA 00000001800333e0     serialport_win.obj
 0004:000013ec       $pdata$?dtor$1@?0??UsingQueryDosDevice@CEnumerateSerial@@SAHAEAV?$vector@IV?$allocator@I@std@@@std@@@Z@4HA 00000001800333ec     enumser.obj
 0004:000013f8       $pdata$_onexit$fin$0       00000001800333f8     LIBCMT:onexit.obj
 0004:00001404       $pdata$_CRT_INIT$fin$0     0000000180033404     LIBCMT:dllcrt0.obj
 0004:00001410       $pdata$__DllMainCRTStartup$filt$0 0000000180033410     LIBCMT:dllcrt0.obj
 0004:0000141c       $pdata$_CallSETranslator$filt$0 000000018003341c     LIBCMT:trnsctrl.obj
 0004:00001428       $pdata$doexit$fin$0        0000000180033428     LIBCMT:crt0dat.obj
 0004:00001434       $pdata$flsall$fin$0        0000000180033434     LIBCMT:fflush.obj
 0004:00001440       $pdata$flsall$fin$1        0000000180033440     LIBCMT:fflush.obj
 0004:0000144c       $pdata$setvbuf$fin$0       000000018003344c     LIBCMT:setvbuf.obj
 0004:00001458       $pdata$fwprintf$fin$0      0000000180033458     LIBCMT:fwprintf.obj
 0004:00001464       $pdata$raise$fin$0         0000000180033464     LIBCMT:winsig.obj
 0004:00001470       $pdata$_ctrlfp$filt$0      0000000180033470     LIBCMT:fpctrl.obj
 0004:0000147c       $pdata$_freefls$fin$1      000000018003347c     LIBCMT:tidtable.obj
 0004:0000147c       $pdata$_initptd$fin$1      000000018003347c     LIBCMT:tidtable.obj
 0004:00001488       $pdata$_freefls$fin$0      0000000180033488     LIBCMT:tidtable.obj
 0004:00001488       $pdata$_initptd$fin$0      0000000180033488     LIBCMT:tidtable.obj
 0004:00001494       $pdata$_isindst$fin$0      0000000180033494     LIBCMT:tzset.obj
 0004:00001494       $pdata$__tzset$fin$0       0000000180033494     LIBCMT:tzset.obj
 0004:000014a0       $pdata$_tzset_nolock$fin$0 00000001800334a0     LIBCMT:tzset.obj
 0004:000014ac       $pdata$_locterm$fin$0      00000001800334ac     LIBCMT:localref.obj
 0004:000014ac       $pdata$__updatetlocinfo$fin$0 00000001800334ac     LIBCMT:localref.obj
 0004:000014b8       $pdata$__updatetmbcinfo$fin$0 00000001800334b8     LIBCMT:mbctype.obj
 0004:000014b8       $pdata$_setmbcp$fin$0      00000001800334b8     LIBCMT:mbctype.obj
 0004:000014c4       $pdata$_ioinit$fin$0       00000001800334c4     LIBCMT:ioinit.obj
 0004:000014d0       $pdata$__CxxCallCatchBlock$filt$0 00000001800334d0     LIBCMT:frame.obj
 0004:000014dc       $pdata$__CxxCallCatchBlock$fin$1 00000001800334dc     LIBCMT:frame.obj
 0004:000014e8       $pdata$__DestructExceptionObject$filt$0 00000001800334e8     LIBCMT:frame.obj
 0004:000014f4       $pdata$__FrameUnwindToState$filt$0 00000001800334f4     LIBCMT:frame.obj
 0004:00001500       $pdata$__FrameUnwindToState$fin$1 0000000180033500     LIBCMT:frame.obj
 0004:0000150c       $pdata$?fin$0@?0??_Type_info_dtor@type_info@@CAXPEAV1@@Z@4HA 000000018003350c     LIBCMT:typname.obj
 0004:00001518       $pdata$_mtinitlocknum$fin$0 0000000180033518     LIBCMT:mlock.obj
 0004:00001524       $pdata$_IsNonwritableInCurrentImage$filt$0 0000000180033524     LIBCMT:pesect.obj
 0004:00001530       $pdata$_fcloseall$fin$0    0000000180033530     LIBCMT:closeall.obj
 0004:0000153c       $pdata$_write$fin$0        000000018003353c     LIBCMT:lseeki64.obj
 0004:0000153c       $pdata$_lseeki64$fin$0     000000018003353c     LIBCMT:lseeki64.obj
 0004:00001548       $pdata$fclose$fin$0        0000000180033548     LIBCMT:fclose.obj
 0004:00001548       $pdata$fflush$fin$0        0000000180033548     LIBCMT:fclose.obj
 0004:00001554       $pdata$__lock_fhandle$fin$0 0000000180033554     LIBCMT:osfinfo.obj
 0004:00001560       $pdata$_commit$fin$0       0000000180033560     LIBCMT:close.obj
 0004:00001560       $pdata$_close$fin$0        0000000180033560     LIBCMT:close.obj
 0004:0000156c       $pdata$??__Fg_closingHandles@@YAXXZ 000000018003356c     serialport_win.obj
 0005:00000060       $R000000                   0000000180034060     * linker generated manifest res *

 Exports

  ordinal    name

        1    _register_serialport_
